

Microchip MPLAB XC8 Assembler V2.31 build 20201012212115 
                                                                                               Thu Jan 14 21:13:52 2021

Microchip MPLAB XC8 C Compiler v2.31 (Free license) build 20201012212115 Og1 
     1                           	processor	18F8527
     2                           	fnconf	rparam,??,?,0
     3                           	pagewidth 120
     4                           	opt	flic
     5                           	psect	idataCOMRAM,global,class=CODE,delta=1,noexec
     6                           	psect	idataBANK0,global,class=CODE,delta=1,noexec
     7                           	psect	idataBANK1,global,class=CODE,delta=1,noexec
     8                           	psect	idataBANK2,global,class=CODE,delta=1,noexec
     9                           	psect	mediumconst,global,reloc=2,class=MEDIUMCONST,delta=1,noexec
    10                           	psect	cinit,global,reloc=2,class=CODE,delta=1
    11                           	psect	bssCOMRAM,global,class=COMRAM,space=1,delta=1,lowdata,noexec
    12                           	psect	dataCOMRAM,global,class=COMRAM,space=1,delta=1,lowdata,noexec
    13                           	psect	bssBANK0,global,class=BANK0,space=1,delta=1,lowdata,noexec
    14                           	psect	dataBANK0,global,class=BANK0,space=1,delta=1,lowdata,noexec
    15                           	psect	bssBANK1,global,class=BANK1,space=1,delta=1,lowdata,noexec
    16                           	psect	dataBANK1,global,class=BANK1,space=1,delta=1,lowdata,noexec
    17                           	psect	dataBANK2,global,class=BANK2,space=1,delta=1,lowdata,noexec
    18                           	psect	bssBIGRAM,global,class=BIGRAM,space=1,delta=1,noexec
    19                           	psect	cstackBANK0,global,class=BANK0,space=1,delta=1,lowdata,noexec
    20                           	psect	cstackCOMRAM,global,class=COMRAM,space=1,delta=1,lowdata,noexec
    21                           	psect	text0,global,reloc=2,class=CODE,delta=1
    22                           	psect	text1,global,reloc=2,class=CODE,delta=1
    23                           	psect	text2,global,reloc=2,class=CODE,delta=1
    24                           	psect	text3,global,reloc=2,class=CODE,delta=1,group=3
    25                           	psect	text4,global,reloc=2,class=CODE,delta=1,group=3
    26                           	psect	text5,global,reloc=2,class=CODE,delta=1,group=1
    27                           	psect	text6,global,reloc=2,class=CODE,delta=1,group=2
    28                           	psect	text7,global,reloc=2,class=CODE,delta=1,group=2
    29                           	psect	text8,global,reloc=2,class=CODE,delta=1
    30                           	psect	text9,global,reloc=2,class=CODE,delta=1
    31                           	psect	text10,global,reloc=2,class=CODE,delta=1,group=3
    32                           	psect	text11,global,reloc=2,class=CODE,delta=1,group=3
    33                           	psect	text12,global,reloc=2,class=CODE,delta=1,group=3
    34                           	psect	text13,global,reloc=2,class=CODE,delta=1,group=3
    35                           	psect	text14,global,reloc=2,class=CODE,delta=1
    36                           	psect	text15,global,reloc=2,class=CODE,delta=1
    37                           	psect	text16,global,reloc=2,class=CODE,delta=1
    38                           	psect	text17,global,reloc=2,class=CODE,delta=1
    39                           	psect	text18,global,reloc=2,class=CODE,delta=1
    40                           	psect	text19,global,reloc=2,class=CODE,delta=1
    41                           	psect	text20,global,reloc=2,class=CODE,delta=1
    42                           	psect	text21,global,reloc=2,class=CODE,delta=1
    43                           	psect	text22,global,reloc=2,class=CODE,delta=1
    44                           	psect	text23,global,reloc=2,class=CODE,delta=1
    45                           	psect	text24,global,reloc=2,class=CODE,delta=1
    46                           	psect	text25,global,reloc=2,class=CODE,delta=1
    47                           	psect	text26,global,reloc=2,class=CODE,delta=1
    48                           	psect	text27,global,reloc=2,class=CODE,delta=1
    49                           	psect	text28,global,reloc=2,class=CODE,delta=1,group=3
    50                           	psect	text29,global,reloc=2,class=CODE,delta=1
    51                           	psect	text30,global,reloc=2,class=CODE,delta=1,group=3
    52                           	psect	text31,global,reloc=2,class=CODE,delta=1
    53                           	psect	text32,global,reloc=2,class=CODE,delta=1
    54                           	psect	text33,global,reloc=2,class=CODE,delta=1
    55                           	psect	text34,global,reloc=2,class=CODE,delta=1
    56                           	psect	text35,global,reloc=2,class=CODE,delta=1
    57                           	psect	text36,global,reloc=2,class=CODE,delta=1
    58                           	psect	text37,global,reloc=2,class=CODE,delta=1
    59                           	psect	text38,global,reloc=2,class=CODE,delta=1
    60                           	psect	text39,global,reloc=2,class=CODE,delta=1
    61                           	psect	text40,global,reloc=2,class=CODE,delta=1
    62                           	psect	text41,global,reloc=2,class=CODE,delta=1
    63                           	psect	text42,global,reloc=2,class=CODE,delta=1
    64                           	psect	text43,global,reloc=2,class=CODE,delta=1
    65                           	psect	text44,global,reloc=2,class=CODE,delta=1
    66                           	psect	text45,global,reloc=2,class=CODE,delta=1
    67                           	psect	intcode,global,reloc=2,class=CODE,delta=1
    68                           	psect	intsave_regs,global,class=BIGRAM,space=1,delta=1,noexec
    69                           	psect	rparam,global,class=COMRAM,space=1,delta=1,noexec
    70                           	psect	temp,global,ovrld,common,class=COMRAM,space=1,delta=1
    71                           	psect	idloc,global,abs,ovrld,class=IDLOC,space=5,delta=1,noexec
    72                           	psect	config,global,abs,ovrld,class=CONFIG,space=4,delta=1,noexec
    73  0000                     
    74                           ; Version 2.20
    75                           ; Generated 12/02/2020 GMT
    76                           ; 
    77                           ; Copyright © 2020, Microchip Technology Inc. and its subsidiaries ("Microchip")
    78                           ; All rights reserved.
    79                           ; 
    80                           ; This software is developed by Microchip Technology Inc. and its subsidiaries ("Microch
      +                          ip").
    81                           ; 
    82                           ; Redistribution and use in source and binary forms, with or without modification, are
    83                           ; permitted provided that the following conditions are met:
    84                           ; 
    85                           ;     1. Redistributions of source code must retain the above copyright notice, this lis
      +                          t of
    86                           ;        conditions and the following disclaimer.
    87                           ; 
    88                           ;     2. Redistributions in binary form must reproduce the above copyright notice, this 
      +                          list
    89                           ;        of conditions and the following disclaimer in the documentation and/or other
    90                           ;        materials provided with the distribution.
    91                           ; 
    92                           ;     3. Microchip's name may not be used to endorse or promote products derived from th
      +                          is
    93                           ;        software without specific prior written permission.
    94                           ; 
    95                           ; THIS SOFTWARE IS PROVIDED BY MICROCHIP "AS IS" AND ANY EXPRESS OR IMPLIED WARRANTIES,
    96                           ; INCLUDING, BUT NOT LIMITED TO, THE IMPLIED WARRANTIES OF MERCHANTABILITY AND FITNESS F
      +                          OR
    97                           ; PURPOSE ARE DISCLAIMED.  IN NO EVENT SHALL MICROCHIP BE LIABLE FOR ANY DIRECT, INDIREC
      +                          T,
    98                           ; INCIDENTAL, SPECIAL, EXEMPLARY, OR CONSEQUENTIAL DAMAGES (INCLUDING BUT NOT LIMITED TO
    99                           ; PROCUREMENT OF SUBSTITUTE GOODS OR SERVICES; LOSS OF USE, DATA OR PROFITS; OR BUSINESS
   100                           ; INTERRUPTION) HOWSOEVER CAUSED AND ON ANY THEORY OF LIABILITY, WHETHER IN CONTRACT, ST
      +                          RICT
   101                           ; LIABILITY, OR TORT (INCLUDING NEGLIGENCE OR OTHERWISE) ARISING IN ANY WAY OUT OF THE U
      +                          SE OF
   102                           ; THIS SOFTWARE, EVEN IF ADVISED OF THE POSSIBILITY OF SUCH DAMAGE.
   103                           ; 
   104                           ; 
   105                           ; Code-generator required, PIC18F8527 Definitions
   106                           ; 
   107                           ; SFR Addresses
   108  0000                     
   109                           	psect	idataCOMRAM
   110  0014F8                     __pidataCOMRAM:
   111                           	callstack 0
   112                           
   113                           ;initializer for _password
   114  0014F8  69                 	db	low STR_2
   115  0014F9  BF                 	db	high STR_2
   116                           
   117                           ;initializer for _SSID
   118  0014FA  EC                 	db	low STR_1
   119  0014FB  BF                 	db	high STR_1
   120                           
   121                           ;initializer for _counter_text
   122  0014FC  31                 	db	49
   123  0014FD  32                 	db	50
   124  0014FE  35                 	db	53
   125  0014FF  31                 	db	49
   126  001500  00                 	db	0
   127                           
   128                           ;initializer for _webpage_text1
   129  001501  3C                 	db	60
   130  001502  68                 	db	104
   131  001503  31                 	db	49
   132  001504  3E                 	db	62
   133  001505  00                 	db	0
   134                           
   135                           	psect	idataBANK0
   136  001506                     __pidataBANK0:
   137                           	callstack 0
   138                           
   139                           ;initializer for send_req_data@F4865
   140  001506  31                 	db	49
   141  001507  32                 	db	50
   142  001508  38                 	db	56
   143  001509  31                 	db	49
   144  00150A  32                 	db	50
   145  00150B  31                 	db	49
   146  00150C  34                 	db	52
   147  00150D  00                 	db	0
   148                           
   149                           ;initializer for _webpage_text2
   150  00150E  3C                 	db	60
   151  00150F  2F                 	db	47
   152  001510  68                 	db	104
   153  001511  31                 	db	49
   154  001512  3E                 	db	62
   155  001513  00                 	db	0
   156                           
   157                           	psect	idataBANK1
   158  001210                     __pidataBANK1:
   159                           	callstack 0
   160                           
   161                           ;initializer for _tcp_web
   162  001210  41                 	db	65
   163  001211  54                 	db	84
   164  001212  2B                 	db	43
   165  001213  43                 	db	67
   166  001214  49                 	db	73
   167  001215  50                 	db	80
   168  001216  53                 	db	83
   169  001217  54                 	db	84
   170  001218  41                 	db	65
   171  001219  52                 	db	82
   172  00121A  54                 	db	84
   173  00121B  3D                 	db	61
   174  00121C  22                 	db	34
   175  00121D  54                 	db	84
   176  00121E  43                 	db	67
   177  00121F  50                 	db	80
   178  001220  22                 	db	34
   179  001221  2C                 	db	44
   180  001222  22                 	db	34
   181  001223  61                 	db	97
   182  001224  70                 	db	112
   183  001225  69                 	db	105
   184  001226  2E                 	db	46
   185  001227  74                 	db	116
   186  001228  68                 	db	104
   187  001229  69                 	db	105
   188  00122A  6E                 	db	110
   189  00122B  67                 	db	103
   190  00122C  73                 	db	115
   191  00122D  70                 	db	112
   192  00122E  65                 	db	101
   193  00122F  61                 	db	97
   194  001230  6B                 	db	107
   195  001231  2E                 	db	46
   196  001232  63                 	db	99
   197  001233  6F                 	db	111
   198  001234  6D                 	db	109
   199  001235  22                 	db	34
   200  001236  2C                 	db	44
   201  001237  38                 	db	56
   202  001238  30                 	db	48
   203  001239  0D                 	db	13
   204  00123A  0A                 	db	10
   205  00123B  00                 	db	0
   206                           
   207                           ;initializer for _code
   208  00123C  3C                 	db	60
   209  00123D  68                 	db	104
   210  00123E  31                 	db	49
   211  00123F  3E                 	db	62
   212  001240  48                 	db	72
   213  001241  65                 	db	101
   214  001242  6C                 	db	108
   215  001243  6C                 	db	108
   216  001244  6F                 	db	111
   217  001245  3C                 	db	60
   218  001246  2F                 	db	47
   219  001247  68                 	db	104
   220  001248  31                 	db	49
   221  001249  3E                 	db	62
   222  00124A  3C                 	db	60
   223  00124B  68                 	db	104
   224  00124C  32                 	db	50
   225  00124D  3E                 	db	62
   226  00124E  53                 	db	83
   227  00124F  41                 	db	65
   228  001250  4D                 	db	77
   229  001251  45                 	db	69
   230  001252  45                 	db	69
   231  001253  52                 	db	82
   232  001254  3C                 	db	60
   233  001255  2F                 	db	47
   234  001256  68                 	db	104
   235  001257  32                 	db	50
   236  001258  3E                 	db	62
   237  001259  00                 	db	0
   238                           
   239                           	psect	idataBANK2
   240  0010CC                     __pidataBANK2:
   241                           	callstack 0
   242                           
   243                           ;initializer for send_req_data@F4868
   244  0010CC  68                 	db	104
   245  0010CD  74                 	db	116
   246  0010CE  74                 	db	116
   247  0010CF  70                 	db	112
   248  0010D0  73                 	db	115
   249  0010D1  3A                 	db	58
   250  0010D2  2F                 	db	47
   251  0010D3  2F                 	db	47
   252  0010D4  61                 	db	97
   253  0010D5  70                 	db	112
   254  0010D6  69                 	db	105
   255  0010D7  2E                 	db	46
   256  0010D8  74                 	db	116
   257  0010D9  68                 	db	104
   258  0010DA  69                 	db	105
   259  0010DB  6E                 	db	110
   260  0010DC  67                 	db	103
   261  0010DD  73                 	db	115
   262  0010DE  70                 	db	112
   263  0010DF  65                 	db	101
   264  0010E0  61                 	db	97
   265  0010E1  6B                 	db	107
   266  0010E2  2E                 	db	46
   267  0010E3  63                 	db	99
   268  0010E4  6F                 	db	111
   269  0010E5  6D                 	db	109
   270  0010E6  2F                 	db	47
   271  0010E7  63                 	db	99
   272  0010E8  68                 	db	104
   273  0010E9  61                 	db	97
   274  0010EA  6E                 	db	110
   275  0010EB  6E                 	db	110
   276  0010EC  65                 	db	101
   277  0010ED  6C                 	db	108
   278  0010EE  73                 	db	115
   279  0010EF  2F                 	db	47
   280  0010F0  31                 	db	49
   281  0010F1  32                 	db	50
   282  0010F2  38                 	db	56
   283  0010F3  31                 	db	49
   284  0010F4  32                 	db	50
   285  0010F5  31                 	db	49
   286  0010F6  34                 	db	52
   287  0010F7  2F                 	db	47
   288  0010F8  66                 	db	102
   289  0010F9  65                 	db	101
   290  0010FA  65                 	db	101
   291  0010FB  64                 	db	100
   292  0010FC  73                 	db	115
   293  0010FD  2E                 	db	46
   294  0010FE  6A                 	db	106
   295  0010FF  73                 	db	115
   296  001100  6F                 	db	111
   297  001101  6E                 	db	110
   298  001102  3F                 	db	63
   299  001103  61                 	db	97
   300  001104  70                 	db	112
   301  001105  69                 	db	105
   302  001106  5F                 	db	95
   303  001107  6B                 	db	107
   304  001108  65                 	db	101
   305  001109  79                 	db	121
   306  00110A  3D                 	db	61
   307  00110B  58                 	db	88
   308  00110C  4C                 	db	76
   309  00110D  50                 	db	80
   310  00110E  49                 	db	73
   311  00110F  44                 	db	68
   312  001110  58                 	db	88
   313  001111  58                 	db	88
   314  001112  49                 	db	73
   315  001113  49                 	db	73
   316  001114  53                 	db	83
   317  001115  54                 	db	84
   318  001116  4A                 	db	74
   319  001117  53                 	db	83
   320  001118  37                 	db	55
   321  001119  38                 	db	56
   322  00111A  5A                 	db	90
   323  00111B  26                 	db	38
   324  00111C  72                 	db	114
   325  00111D  65                 	db	101
   326  00111E  73                 	db	115
   327  00111F  75                 	db	117
   328  001120  6C                 	db	108
   329  001121  74                 	db	116
   330  001122  73                 	db	115
   331  001123  3D                 	db	61
   332  001124  31                 	db	49
   333  001125  00                 	db	0
   334                           
   335                           	psect	mediumconst
   336  00BE5E                     __pmediumconst:
   337                           	callstack 0
   338  00BE5E  00                 	db	0
   339  00BE5F                     _AT_CIPSERVER:
   340                           	callstack 0
   341  00BE5F  41                 	db	65
   342  00BE60  54                 	db	84
   343  00BE61  2B                 	db	43
   344  00BE62  43                 	db	67
   345  00BE63  49                 	db	73
   346  00BE64  50                 	db	80
   347  00BE65  53                 	db	83
   348  00BE66  45                 	db	69
   349  00BE67  52                 	db	82
   350  00BE68  56                 	db	86
   351  00BE69  45                 	db	69
   352  00BE6A  52                 	db	82
   353  00BE6B  3D                 	db	61
   354  00BE6C  00                 	db	0
   355  00BE6D                     __end_of_AT_CIPSERVER:
   356                           	callstack 0
   357  00BE6D                     _AT_CIPCLOSE:
   358                           	callstack 0
   359  00BE6D  41                 	db	65
   360  00BE6E  54                 	db	84
   361  00BE6F  2B                 	db	43
   362  00BE70  43                 	db	67
   363  00BE71  49                 	db	73
   364  00BE72  50                 	db	80
   365  00BE73  43                 	db	67
   366  00BE74  4C                 	db	76
   367  00BE75  4F                 	db	79
   368  00BE76  53                 	db	83
   369  00BE77  45                 	db	69
   370  00BE78  3D                 	db	61
   371  00BE79  00                 	db	0
   372  00BE7A                     __end_of_AT_CIPCLOSE:
   373                           	callstack 0
   374  00BE7A                     _AT_CIPSTART:
   375                           	callstack 0
   376  00BE7A  41                 	db	65
   377  00BE7B  54                 	db	84
   378  00BE7C  2B                 	db	43
   379  00BE7D  43                 	db	67
   380  00BE7E  49                 	db	73
   381  00BE7F  50                 	db	80
   382  00BE80  53                 	db	83
   383  00BE81  54                 	db	84
   384  00BE82  41                 	db	65
   385  00BE83  52                 	db	82
   386  00BE84  54                 	db	84
   387  00BE85  3D                 	db	61
   388  00BE86  00                 	db	0
   389  00BE87                     __end_of_AT_CIPSTART:
   390                           	callstack 0
   391  00BE87                     _AT_CIPSTATUS:
   392                           	callstack 0
   393  00BE87  41                 	db	65
   394  00BE88  54                 	db	84
   395  00BE89  2B                 	db	43
   396  00BE8A  43                 	db	67
   397  00BE8B  49                 	db	73
   398  00BE8C  50                 	db	80
   399  00BE8D  53                 	db	83
   400  00BE8E  54                 	db	84
   401  00BE8F  41                 	db	65
   402  00BE90  54                 	db	84
   403  00BE91  55                 	db	85
   404  00BE92  53                 	db	83
   405  00BE93  00                 	db	0
   406  00BE94                     __end_of_AT_CIPSTATUS:
   407                           	callstack 0
   408  00BE94                     _AT_CIPMUX:
   409                           	callstack 0
   410  00BE94  41                 	db	65
   411  00BE95  54                 	db	84
   412  00BE96  2B                 	db	43
   413  00BE97  43                 	db	67
   414  00BE98  49                 	db	73
   415  00BE99  50                 	db	80
   416  00BE9A  4D                 	db	77
   417  00BE9B  55                 	db	85
   418  00BE9C  58                 	db	88
   419  00BE9D  3D                 	db	61
   420  00BE9E  00                 	db	0
   421  00BE9F                     __end_of_AT_CIPMUX:
   422                           	callstack 0
   423  00BE9F                     _AT_CWMODE:
   424                           	callstack 0
   425  00BE9F  41                 	db	65
   426  00BEA0  54                 	db	84
   427  00BEA1  2B                 	db	43
   428  00BEA2  43                 	db	67
   429  00BEA3  57                 	db	87
   430  00BEA4  4D                 	db	77
   431  00BEA5  4F                 	db	79
   432  00BEA6  44                 	db	68
   433  00BEA7  45                 	db	69
   434  00BEA8  3D                 	db	61
   435  00BEA9  00                 	db	0
   436  00BEAA                     __end_of_AT_CWMODE:
   437                           	callstack 0
   438  00BEAA                     _dpowers:
   439                           	callstack 0
   440  00BEAA  0001               	dw	1
   441  00BEAC  000A               	dw	10
   442  00BEAE  0064               	dw	100
   443  00BEB0  03E8               	dw	1000
   444  00BEB2  2710               	dw	10000
   445  00BEB4                     __end_of_dpowers:
   446                           	callstack 0
   447  00BEB4                     _AT_CWSAP:
   448                           	callstack 0
   449  00BEB4  41                 	db	65
   450  00BEB5  54                 	db	84
   451  00BEB6  2B                 	db	43
   452  00BEB7  43                 	db	67
   453  00BEB8  57                 	db	87
   454  00BEB9  53                 	db	83
   455  00BEBA  41                 	db	65
   456  00BEBB  50                 	db	80
   457  00BEBC  3D                 	db	61
   458  00BEBD  00                 	db	0
   459  00BEBE                     __end_of_AT_CWSAP:
   460                           	callstack 0
   461  00BEBE                     _AT_CWJAP:
   462                           	callstack 0
   463  00BEBE  41                 	db	65
   464  00BEBF  54                 	db	84
   465  00BEC0  2B                 	db	43
   466  00BEC1  43                 	db	67
   467  00BEC2  57                 	db	87
   468  00BEC3  4A                 	db	74
   469  00BEC4  41                 	db	65
   470  00BEC5  50                 	db	80
   471  00BEC6  3D                 	db	61
   472  00BEC7  00                 	db	0
   473  00BEC8                     __end_of_AT_CWJAP:
   474                           	callstack 0
   475  00BEC8                     _AT_CIFSR:
   476                           	callstack 0
   477  00BEC8  41                 	db	65
   478  00BEC9  54                 	db	84
   479  00BECA  2B                 	db	43
   480  00BECB  43                 	db	67
   481  00BECC  49                 	db	73
   482  00BECD  46                 	db	70
   483  00BECE  53                 	db	83
   484  00BECF  52                 	db	82
   485  00BED0  00                 	db	0
   486  00BED1                     __end_of_AT_CIFSR:
   487                           	callstack 0
   488  00BED1                     _AT_CWQAP:
   489                           	callstack 0
   490  00BED1  41                 	db	65
   491  00BED2  54                 	db	84
   492  00BED3  2B                 	db	43
   493  00BED4  43                 	db	67
   494  00BED5  57                 	db	87
   495  00BED6  51                 	db	81
   496  00BED7  41                 	db	65
   497  00BED8  50                 	db	80
   498  00BED9  00                 	db	0
   499  00BEDA                     __end_of_AT_CWQAP:
   500                           	callstack 0
   501  00BEDA                     _AT_CWLAP:
   502                           	callstack 0
   503  00BEDA  41                 	db	65
   504  00BEDB  54                 	db	84
   505  00BEDC  2B                 	db	43
   506  00BEDD  43                 	db	67
   507  00BEDE  57                 	db	87
   508  00BEDF  4C                 	db	76
   509  00BEE0  41                 	db	65
   510  00BEE1  50                 	db	80
   511  00BEE2  00                 	db	0
   512  00BEE3                     __end_of_AT_CWLAP:
   513                           	callstack 0
   514  00BEE3                     _AT_RST:
   515                           	callstack 0
   516  00BEE3  41                 	db	65
   517  00BEE4  54                 	db	84
   518  00BEE5  2B                 	db	43
   519  00BEE6  52                 	db	82
   520  00BEE7  53                 	db	83
   521  00BEE8  54                 	db	84
   522  00BEE9  00                 	db	0
   523  00BEEA                     __end_of_AT_RST:
   524                           	callstack 0
   525  00BEEA  04                 	db	4
   526  00BEEB                     __end_of_send_ready:
   527                           	callstack 0
   528  00BEEB  03                 	db	3
   529  00BEEC                     __end_of_no_change:
   530                           	callstack 0
   531  00BEEC  02                 	db	2
   532  00BEED                     __end_of_ready:
   533                           	callstack 0
   534  00BEED  01                 	db	1
   535  00BEEE                     __end_of_OK:
   536                           	callstack 0
   537  00BEEE                     _port:
   538                           	callstack 0
   539  00BEEE  38                 	db	56
   540  00BEEF  30                 	db	48
   541  00BEF0  00                 	db	0
   542  00BEF1                     __end_of_port:
   543                           	callstack 0
   544  0000                     _TRISH	set	3993
   545  0000                     _TRISE	set	3990
   546  0000                     _SSPBUF	set	4041
   547  0000                     _SSPADD	set	4040
   548  0000                     _SSPSTAT	set	4039
   549  0000                     _SSPCON2	set	4037
   550  0000                     _SSPCON1	set	4038
   551  0000                     _RCREG	set	4014
   552  0000                     _SPBRG	set	4015
   553  0000                     _TXREG	set	4013
   554  0000                     _RH0	set	31800
   555  0000                     _SSPIF	set	31987
   556  0000                     _RCEN	set	32299
   557  0000                     _ACKEN	set	32300
   558  0000                     _ACKDT	set	32301
   559  0000                     _RSEN	set	32297
   560  0000                     _PEN	set	32298
   561  0000                     _SEN	set	32296
   562  0000                     _TRISC4	set	31908
   563  0000                     _TRISC3	set	31907
   564  0000                     _RE0	set	31776
   565  0000                     _RH5	set	31805
   566  0000                     _RE5	set	31781
   567  0000                     _RH7	set	31807
   568  0000                     _RE7	set	31783
   569  0000                     _RCIF	set	31989
   570  0000                     _RC1	set	31761
   571  0000                     _TRISC1	set	31905
   572  0000                     _RF6	set	31790
   573  0000                     _TRISF6	set	31934
   574  0000                     _TRISB0	set	31896
   575  0000                     _PCFG3	set	32267
   576  0000                     _PCFG2	set	32266
   577  0000                     _PCFG1	set	32265
   578  0000                     _PCFG0	set	32264
   579  0000                     _TXEN	set	32101
   580  0000                     _CREN	set	32092
   581  0000                     _GIE	set	32663
   582  0000                     _PEIE	set	32662
   583  0000                     _RCIE	set	31981
   584  0000                     _TRISC7	set	31911
   585  0000                     _TRISC6	set	31910
   586  0000                     _SYNC	set	32100
   587  0000                     _BRGH	set	32098
   588  0000                     _SPEN	set	32095
   589  0000                     _TRMT	set	32097
   590  00BEF1  41                 	db	65	;'A'
   591  00BEF2  54                 	db	84	;'T'
   592  00BEF3  2B                 	db	43
   593  00BEF4  43                 	db	67	;'C'
   594  00BEF5  49                 	db	73	;'I'
   595  00BEF6  50                 	db	80	;'P'
   596  00BEF7  53                 	db	83	;'S'
   597  00BEF8  45                 	db	69	;'E'
   598  00BEF9  4E                 	db	78	;'N'
   599  00BEFA  44                 	db	68	;'D'
   600  00BEFB  3D                 	db	61	;'='
   601  00BEFC  30                 	db	48	;'0'
   602  00BEFD  2C                 	db	44
   603  00BEFE  32                 	db	50	;'2'
   604  00BEFF  39                 	db	57	;'9'
   605  00BF00  00                 	db	0
   606  00BF01  41                 	db	65	;'A'
   607  00BF02  54                 	db	84	;'T'
   608  00BF03  2B                 	db	43
   609  00BF04  43                 	db	67	;'C'
   610  00BF05  49                 	db	73	;'I'
   611  00BF06  50                 	db	80	;'P'
   612  00BF07  53                 	db	83	;'S'
   613  00BF08  45                 	db	69	;'E'
   614  00BF09  52                 	db	82	;'R'
   615  00BF0A  56                 	db	86	;'V'
   616  00BF0B  45                 	db	69	;'E'
   617  00BF0C  52                 	db	82	;'R'
   618  00BF0D  3D                 	db	61	;'='
   619  00BF0E  31                 	db	49	;'1'
   620  00BF0F  00                 	db	0
   621  00BF10                     STR_30:
   622  00BF10  41                 	db	65	;'A'
   623  00BF11  54                 	db	84	;'T'
   624  00BF12  2B                 	db	43
   625  00BF13  43                 	db	67	;'C'
   626  00BF14  49                 	db	73	;'I'
   627  00BF15  50                 	db	80	;'P'
   628  00BF16  43                 	db	67	;'C'
   629  00BF17  4C                 	db	76	;'L'
   630  00BF18  4F                 	db	79	;'O'
   631  00BF19  53                 	db	83	;'S'
   632  00BF1A  45                 	db	69	;'E'
   633  00BF1B  0D                 	db	13
   634  00BF1C  0A                 	db	10
   635  00BF1D  00                 	db	0
   636  00BF1E  41                 	db	65	;'A'
   637  00BF1F  54                 	db	84	;'T'
   638  00BF20  2B                 	db	43
   639  00BF21  43                 	db	67	;'C'
   640  00BF22  49                 	db	73	;'I'
   641  00BF23  50                 	db	80	;'P'
   642  00BF24  43                 	db	67	;'C'
   643  00BF25  4C                 	db	76	;'L'
   644  00BF26  4F                 	db	79	;'O'
   645  00BF27  53                 	db	83	;'S'
   646  00BF28  45                 	db	69	;'E'
   647  00BF29  3D                 	db	61	;'='
   648  00BF2A  30                 	db	48	;'0'
   649  00BF2B  00                 	db	0
   650  00BF2C  41                 	db	65	;'A'
   651  00BF2D  54                 	db	84	;'T'
   652  00BF2E  2B                 	db	43
   653  00BF2F  43                 	db	67	;'C'
   654  00BF30  49                 	db	73	;'I'
   655  00BF31  50                 	db	80	;'P'
   656  00BF32  43                 	db	67	;'C'
   657  00BF33  4C                 	db	76	;'L'
   658  00BF34  4F                 	db	79	;'O'
   659  00BF35  53                 	db	83	;'S'
   660  00BF36  45                 	db	69	;'E'
   661  00BF37  3D                 	db	61	;'='
   662  00BF38  00                 	db	0
   663  00BF39  41                 	db	65	;'A'
   664  00BF3A  54                 	db	84	;'T'
   665  00BF3B  2B                 	db	43
   666  00BF3C  43                 	db	67	;'C'
   667  00BF3D  49                 	db	73	;'I'
   668  00BF3E  50                 	db	80	;'P'
   669  00BF3F  4D                 	db	77	;'M'
   670  00BF40  55                 	db	85	;'U'
   671  00BF41  58                 	db	88	;'X'
   672  00BF42  3D                 	db	61	;'='
   673  00BF43  30                 	db	48	;'0'
   674  00BF44  00                 	db	0
   675  00BF45                     STR_19:
   676  00BF45  41                 	db	65	;'A'
   677  00BF46  54                 	db	84	;'T'
   678  00BF47  2B                 	db	43
   679  00BF48  43                 	db	67	;'C'
   680  00BF49  49                 	db	73	;'I'
   681  00BF4A  50                 	db	80	;'P'
   682  00BF4B  4D                 	db	77	;'M'
   683  00BF4C  55                 	db	85	;'U'
   684  00BF4D  58                 	db	88	;'X'
   685  00BF4E  3D                 	db	61	;'='
   686  00BF4F  31                 	db	49	;'1'
   687  00BF50  00                 	db	0
   688  00BF51                     STR_17:
   689  00BF51  41                 	db	65	;'A'
   690  00BF52  54                 	db	84	;'T'
   691  00BF53  2B                 	db	43
   692  00BF54  43                 	db	67	;'C'
   693  00BF55  57                 	db	87	;'W'
   694  00BF56  4D                 	db	77	;'M'
   695  00BF57  4F                 	db	79	;'O'
   696  00BF58  44                 	db	68	;'D'
   697  00BF59  45                 	db	69	;'E'
   698  00BF5A  3D                 	db	61	;'='
   699  00BF5B  33                 	db	51	;'3'
   700  00BF5C  00                 	db	0
   701  00BF5D                     STR_28:
   702  00BF5D  41                 	db	65	;'A'
   703  00BF5E  54                 	db	84	;'T'
   704  00BF5F  2B                 	db	43
   705  00BF60  43                 	db	67	;'C'
   706  00BF61  49                 	db	73	;'I'
   707  00BF62  50                 	db	80	;'P'
   708  00BF63  53                 	db	83	;'S'
   709  00BF64  45                 	db	69	;'E'
   710  00BF65  4E                 	db	78	;'N'
   711  00BF66  44                 	db	68	;'D'
   712  00BF67  3D                 	db	61	;'='
   713  00BF68  00                 	db	0
   714  00BF69                     STR_2:
   715  00BF69  30                 	db	48	;'0'
   716  00BF6A  31                 	db	49	;'1'
   717  00BF6B  32                 	db	50	;'2'
   718  00BF6C  33                 	db	51	;'3'
   719  00BF6D  34                 	db	52	;'4'
   720  00BF6E  35                 	db	53	;'5'
   721  00BF6F  36                 	db	54	;'6'
   722  00BF70  37                 	db	55	;'7'
   723  00BF71  38                 	db	56	;'8'
   724  00BF72  39                 	db	57	;'9'
   725  00BF73  00                 	db	0
   726  00BF74                     STR_21:
   727  00BF74  41                 	db	65	;'A'
   728  00BF75  54                 	db	84	;'T'
   729  00BF76  2B                 	db	43
   730  00BF77  43                 	db	67	;'C'
   731  00BF78  57                 	db	87	;'W'
   732  00BF79  4A                 	db	74	;'J'
   733  00BF7A  41                 	db	65	;'A'
   734  00BF7B  50                 	db	80	;'P'
   735  00BF7C  3D                 	db	61	;'='
   736  00BF7D  3F                 	db	63	;'?'
   737  00BF7E  00                 	db	0
   738  00BF7F                     STR_20:
   739  00BF7F  41                 	db	65	;'A'
   740  00BF80  54                 	db	84	;'T'
   741  00BF81  2B                 	db	43
   742  00BF82  43                 	db	67	;'C'
   743  00BF83  57                 	db	87	;'W'
   744  00BF84  4A                 	db	74	;'J'
   745  00BF85  41                 	db	65	;'A'
   746  00BF86  50                 	db	80	;'P'
   747  00BF87  3D                 	db	61	;'='
   748  00BF88  00                 	db	0
   749  00BF89                     STR_4:
   750  00BF89  6E                 	db	110	;'n'
   751  00BF8A  6F                 	db	111	;'o'
   752  00BF8B  20                 	db	32
   753  00BF8C  63                 	db	99	;'c'
   754  00BF8D  68                 	db	104	;'h'
   755  00BF8E  61                 	db	97	;'a'
   756  00BF8F  6E                 	db	110	;'n'
   757  00BF90  67                 	db	103	;'g'
   758  00BF91  65                 	db	101	;'e'
   759  00BF92  00                 	db	0
   760  00BF93                     STR_14:
   761  00BF93  53                 	db	83	;'S'
   762  00BF94  54                 	db	84	;'T'
   763  00BF95  41                 	db	65	;'A'
   764  00BF96  4D                 	db	77	;'M'
   765  00BF97  41                 	db	65	;'A'
   766  00BF98  43                 	db	67	;'C'
   767  00BF99  2C                 	db	44
   768  00BF9A  22                 	db	34
   769  00BF9B  00                 	db	0
   770  00BF9C                     STR_16:
   771  00BF9C  41                 	db	65	;'A'
   772  00BF9D  54                 	db	84	;'T'
   773  00BF9E  2B                 	db	43
   774  00BF9F  43                 	db	67	;'C'
   775  00BFA0  57                 	db	87	;'W'
   776  00BFA1  51                 	db	81	;'Q'
   777  00BFA2  41                 	db	65	;'A'
   778  00BFA3  50                 	db	80	;'P'
   779  00BFA4  00                 	db	0
   780  00BFA5  41                 	db	65	;'A'
   781  00BFA6  54                 	db	84	;'T'
   782  00BFA7  2B                 	db	43
   783  00BFA8  43                 	db	67	;'C'
   784  00BFA9  49                 	db	73	;'I'
   785  00BFAA  46                 	db	70	;'F'
   786  00BFAB  53                 	db	83	;'S'
   787  00BFAC  52                 	db	82	;'R'
   788  00BFAD  00                 	db	0
   789  00BFAE  41                 	db	65	;'A'
   790  00BFAF  50                 	db	80	;'P'
   791  00BFB0  4D                 	db	77	;'M'
   792  00BFB1  41                 	db	65	;'A'
   793  00BFB2  43                 	db	67	;'C'
   794  00BFB3  2C                 	db	44
   795  00BFB4  22                 	db	34
   796  00BFB5  00                 	db	0
   797  00BFB6  53                 	db	83	;'S'
   798  00BFB7  54                 	db	84	;'T'
   799  00BFB8  41                 	db	65	;'A'
   800  00BFB9  49                 	db	73	;'I'
   801  00BFBA  50                 	db	80	;'P'
   802  00BFBB  2C                 	db	44
   803  00BFBC  22                 	db	34
   804  00BFBD  00                 	db	0
   805  00BFBE  41                 	db	65	;'A'
   806  00BFBF  50                 	db	80	;'P'
   807  00BFC0  49                 	db	73	;'I'
   808  00BFC1  50                 	db	80	;'P'
   809  00BFC2  2C                 	db	44
   810  00BFC3  22                 	db	34
   811  00BFC4  00                 	db	0
   812  00BFC5                     STR_32:
   813  00BFC5  2B                 	db	43
   814  00BFC6  49                 	db	73	;'I'
   815  00BFC7  50                 	db	80	;'P'
   816  00BFC8  44                 	db	68	;'D'
   817  00BFC9  2C                 	db	44
   818  00BFCA  00                 	db	0
   819  00BFCB                     STR_47:
   820  00BFCB  64                 	db	100	;'d'
   821  00BFCC  69                 	db	105	;'i'
   822  00BFCD  72                 	db	114	;'r'
   823  00BFCE  38                 	db	56	;'8'
   824  00BFCF  5F                 	db	95	;'_'
   825  00BFD0  00                 	db	0
   826  00BFD1                     STR_51:
   827  00BFD1  72                 	db	114	;'r'
   828  00BFD2  69                 	db	105	;'i'
   829  00BFD3  67                 	db	103	;'g'
   830  00BFD4  68                 	db	104	;'h'
   831  00BFD5  74                 	db	116	;'t'
   832  00BFD6  00                 	db	0
   833  00BFD7                     STR_5:
   834  00BFD7  72                 	db	114	;'r'
   835  00BFD8  65                 	db	101	;'e'
   836  00BFD9  61                 	db	97	;'a'
   837  00BFDA  64                 	db	100	;'d'
   838  00BFDB  79                 	db	121	;'y'
   839  00BFDC  00                 	db	0
   840  00BFDD                     STR_31:
   841  00BFDD  2B                 	db	43
   842  00BFDE  49                 	db	73	;'I'
   843  00BFDF  50                 	db	80	;'P'
   844  00BFE0  44                 	db	68	;'D'
   845  00BFE1  00                 	db	0
   846  00BFE2                     STR_50:
   847  00BFE2  64                 	db	100	;'d'
   848  00BFE3  6F                 	db	111	;'o'
   849  00BFE4  77                 	db	119	;'w'
   850  00BFE5  6E                 	db	110	;'n'
   851  00BFE6  00                 	db	0
   852  00BFE7                     STR_52:
   853  00BFE7  6C                 	db	108	;'l'
   854  00BFE8  65                 	db	101	;'e'
   855  00BFE9  66                 	db	102	;'f'
   856  00BFEA  74                 	db	116	;'t'
   857  00BFEB  00                 	db	0
   858  00BFEC                     STR_1:
   859  00BFEC  6A                 	db	106	;'j'
   860  00BFED  6F                 	db	111	;'o'
   861  00BFEE  6F                 	db	111	;'o'
   862  00BFEF  00                 	db	0
   863  00BFF0                     STR_26:
   864  00BFF0  41                 	db	65	;'A'
   865  00BFF1  54                 	db	84	;'T'
   866  00BFF2  00                 	db	0
   867  00BFF3                     STR_3:
   868  00BFF3  6F                 	db	111	;'o'
   869  00BFF4  6B                 	db	107	;'k'
   870  00BFF5  00                 	db	0
   871  00BFF6                     STR_49:
   872  00BFF6  75                 	db	117	;'u'
   873  00BFF7  70                 	db	112	;'p'
   874  00BFF8  00                 	db	0
   875  00BFF9                     STR_27:
   876  00BFF9  25                 	db	37
   877  00BFFA  75                 	db	117	;'u'
   878  00BFFB  00                 	db	0
   879  00BFFC                     STR_6:
   880  00BFFC  3E                 	db	62	;'>'
   881  00BFFD  00                 	db	0
   882  00BFFE  00                 	db	0	; dummy byte at the end
   883  0000                     
   884                           ; #config settings
   885                           
   886                           	psect	cinit
   887  000AF4                     __pcinit:
   888                           	callstack 0
   889  000AF4                     start_initialization:
   890                           	callstack 0
   891  000AF4                     __initialization:
   892                           	callstack 0
   893                           
   894                           ; Initialize objects allocated to BANK2 (90 bytes)
   895                           ; load TBLPTR registers with __pidataBANK2
   896  000AF4  0ECC               	movlw	low __pidataBANK2
   897  000AF6  6EF6               	movwf	tblptrl,c
   898  000AF8  0E10               	movlw	high __pidataBANK2
   899  000AFA  6EF7               	movwf	tblptrh,c
   900  000AFC  0E00               	movlw	low (__pidataBANK2 shr (0+16))
   901  000AFE  6EF8               	movwf	tblptru,c
   902  000B00  EE02  F000         	lfsr	0,__pdataBANK2
   903  000B04  EE10 F05A          	lfsr	1,90
   904  000B08                     copy_data0:
   905  000B08  0009               	tblrd		*+
   906  000B0A  CFF5 FFEE          	movff	tablat,postinc0
   907  000B0E  50E5               	movf	postdec1,w,c
   908  000B10  50E1               	movf	fsr1l,w,c
   909  000B12  E1FA               	bnz	copy_data0
   910                           
   911                           ; Initialize objects allocated to BANK1 (74 bytes)
   912                           ; load TBLPTR registers with __pidataBANK1
   913  000B14  0E10               	movlw	low __pidataBANK1
   914  000B16  6EF6               	movwf	tblptrl,c
   915  000B18  0E12               	movlw	high __pidataBANK1
   916  000B1A  6EF7               	movwf	tblptrh,c
   917  000B1C  0E00               	movlw	low (__pidataBANK1 shr (0+16))
   918  000B1E  6EF8               	movwf	tblptru,c
   919  000B20  EE01  F08C         	lfsr	0,__pdataBANK1
   920  000B24  EE10 F04A          	lfsr	1,74
   921  000B28                     copy_data1:
   922  000B28  0009               	tblrd		*+
   923  000B2A  CFF5 FFEE          	movff	tablat,postinc0
   924  000B2E  50E5               	movf	postdec1,w,c
   925  000B30  50E1               	movf	fsr1l,w,c
   926  000B32  E1FA               	bnz	copy_data1
   927                           
   928                           ; Initialize objects allocated to BANK0 (14 bytes)
   929                           ; load TBLPTR registers with __pidataBANK0
   930  000B34  0E06               	movlw	low __pidataBANK0
   931  000B36  6EF6               	movwf	tblptrl,c
   932  000B38  0E15               	movlw	high __pidataBANK0
   933  000B3A  6EF7               	movwf	tblptrh,c
   934  000B3C  0E00               	movlw	low (__pidataBANK0 shr (0+16))
   935  000B3E  6EF8               	movwf	tblptru,c
   936  000B40  EE00  F0E2         	lfsr	0,__pdataBANK0
   937  000B44  EE10 F00E          	lfsr	1,14
   938  000B48                     copy_data2:
   939  000B48  0009               	tblrd		*+
   940  000B4A  CFF5 FFEE          	movff	tablat,postinc0
   941  000B4E  50E5               	movf	postdec1,w,c
   942  000B50  50E1               	movf	fsr1l,w,c
   943  000B52  E1FA               	bnz	copy_data2
   944                           
   945                           ; Initialize objects allocated to COMRAM (14 bytes)
   946                           ; load TBLPTR registers with __pidataCOMRAM
   947  000B54  0EF8               	movlw	low __pidataCOMRAM
   948  000B56  6EF6               	movwf	tblptrl,c
   949  000B58  0E14               	movlw	high __pidataCOMRAM
   950  000B5A  6EF7               	movwf	tblptrh,c
   951  000B5C  0E00               	movlw	low (__pidataCOMRAM shr (0+16))
   952  000B5E  6EF8               	movwf	tblptru,c
   953  000B60  EE00  F04D         	lfsr	0,__pdataCOMRAM
   954  000B64  EE10 F00E          	lfsr	1,14
   955  000B68                     copy_data3:
   956  000B68  0009               	tblrd		*+
   957  000B6A  CFF5 FFEE          	movff	tablat,postinc0
   958  000B6E  50E5               	movf	postdec1,w,c
   959  000B70  50E1               	movf	fsr1l,w,c
   960  000B72  E1FA               	bnz	copy_data3
   961                           
   962                           ; Clear objects allocated to BIGRAM (500 bytes)
   963  000B74  EE02  F05A         	lfsr	0,__pbssBIGRAM
   964  000B78  EE11 F0F4          	lfsr	1,500
   965  000B7C                     clear_0:
   966  000B7C  6AEE               	clrf	postinc0,c
   967  000B7E  50E5               	movf	postdec1,w,c
   968  000B80  50E1               	movf	fsr1l,w,c
   969  000B82  E1FC               	bnz	clear_0
   970  000B84  50E2               	movf	fsr1h,w,c
   971  000B86  E1FA               	bnz	clear_0
   972                           
   973                           ; Clear objects allocated to BANK1 (140 bytes)
   974  000B88  EE01  F000         	lfsr	0,__pbssBANK1
   975  000B8C  0E8C               	movlw	140
   976  000B8E                     clear_1:
   977  000B8E  6AEE               	clrf	postinc0,c
   978  000B90  06E8               	decf	wreg,f,c
   979  000B92  E1FD               	bnz	clear_1
   980                           
   981                           ; Clear objects allocated to BANK0 (20 bytes)
   982  000B94  EE00  F0CE         	lfsr	0,__pbssBANK0
   983  000B98  0E14               	movlw	20
   984  000B9A                     clear_2:
   985  000B9A  6AEE               	clrf	postinc0,c
   986  000B9C  06E8               	decf	wreg,f,c
   987  000B9E  E1FD               	bnz	clear_2
   988                           
   989                           ; Clear objects allocated to COMRAM (26 bytes)
   990  000BA0  EE00  F033         	lfsr	0,__pbssCOMRAM
   991  000BA4  0E1A               	movlw	26
   992  000BA6                     clear_3:
   993  000BA6  6AEE               	clrf	postinc0,c
   994  000BA8  06E8               	decf	wreg,f,c
   995  000BAA  E1FD               	bnz	clear_3
   996  000BAC                     end_of_initialization:
   997                           	callstack 0
   998  000BAC                     __end_of__initialization:
   999                           	callstack 0
  1000  000BAC  905B               	bcf	int$flags,0,c	;clear compiler interrupt flag (level 1)
  1001  000BAE  925B               	bcf	int$flags,1,c	;clear compiler interrupt flag (level 2)
  1002  000BB0  0E00               	movlw	low (__Lmediumconst shr (0+16))
  1003  000BB2  6EF8               	movwf	tblptru,c
  1004  000BB4  0100               	movlb	0
  1005  000BB6  EFB2  F001         	goto	_main	;jump to C main() function
  1006                           
  1007                           	psect	bssCOMRAM
  1008  000033                     __pbssCOMRAM:
  1009                           	callstack 0
  1010  000033                     _size_data:
  1011                           	callstack 0
  1012  000033                     	ds	2
  1013  000035                     _adc_value:
  1014                           	callstack 0
  1015  000035                     	ds	2
  1016  000037                     _data_len:
  1017                           	callstack 0
  1018  000037                     	ds	2
  1019  000039                     _tmp:
  1020                           	callstack 0
  1021  000039                     	ds	1
  1022  00003A                     _data_ready:
  1023                           	callstack 0
  1024  00003A                     	ds	1
  1025  00003B                     _size_data_text:
  1026                           	callstack 0
  1027  00003B                     	ds	6
  1028  000041                     _adc_value_text:
  1029                           	callstack 0
  1030  000041                     	ds	6
  1031  000047                     _connection_id:
  1032                           	callstack 0
  1033  000047                     	ds	6
  1034                           
  1035                           	psect	dataCOMRAM
  1036  00004D                     __pdataCOMRAM:
  1037                           	callstack 0
  1038  00004D                     _password:
  1039                           	callstack 0
  1040  00004D                     	ds	2
  1041  00004F                     _SSID:
  1042                           	callstack 0
  1043  00004F                     	ds	2
  1044  000051                     _counter_text:
  1045                           	callstack 0
  1046  000051                     	ds	5
  1047  000056                     _webpage_text1:
  1048                           	callstack 0
  1049  000056                     	ds	5
  1050                           
  1051                           	psect	bssBANK0
  1052  0000CE                     __pbssBANK0:
  1053                           	callstack 0
  1054  0000CE                     _send_command:
  1055                           	callstack 0
  1056  0000CE                     	ds	20
  1057                           
  1058                           	psect	dataBANK0
  1059  0000E2                     __pdataBANK0:
  1060                           	callstack 0
  1061  0000E2                     send_req_data@F4865:
  1062                           	callstack 0
  1063  0000E2                     	ds	8
  1064  0000EA                     _webpage_text2:
  1065                           	callstack 0
  1066  0000EA                     	ds	6
  1067                           
  1068                           	psect	bssBANK1
  1069  000100                     __pbssBANK1:
  1070                           	callstack 0
  1071  000100                     _STAMAC:
  1072                           	callstack 0
  1073  000100                     	ds	30
  1074  00011E                     _STAIP:
  1075                           	callstack 0
  1076  00011E                     	ds	30
  1077  00013C                     _APMAC:
  1078                           	callstack 0
  1079  00013C                     	ds	30
  1080  00015A                     _APIP:
  1081                           	callstack 0
  1082  00015A                     	ds	30
  1083  000178                     _close_command:
  1084                           	callstack 0
  1085  000178                     	ds	20
  1086                           
  1087                           	psect	dataBANK1
  1088  00018C                     __pdataBANK1:
  1089                           	callstack 0
  1090  00018C                     _tcp_web:
  1091                           	callstack 0
  1092  00018C                     	ds	44
  1093  0001B8                     _code:
  1094                           	callstack 0
  1095  0001B8                     	ds	30
  1096                           
  1097                           	psect	dataBANK2
  1098  000200                     __pdataBANK2:
  1099                           	callstack 0
  1100  000200                     send_req_data@F4868:
  1101                           	callstack 0
  1102  000200                     	ds	90
  1103                           
  1104                           	psect	bssBIGRAM
  1105  00025A                     __pbssBIGRAM:
  1106                           	callstack 0
  1107  00025A                     _rx_buff:
  1108                           	callstack 0
  1109  00025A                     	ds	500
  1110                           
  1111                           	psect	cstackBANK0
  1112  000060                     __pcstackBANK0:
  1113                           	callstack 0
  1114  000060                     send_req_data@link_req:
  1115                           	callstack 0
  1116                           
  1117                           ; 90 bytes @ 0x0
  1118  000060                     	ds	90
  1119  0000BA                     send_req_data@id_:
  1120                           	callstack 0
  1121                           
  1122                           ; 8 bytes @ 0x5A
  1123  0000BA                     	ds	8
  1124  0000C2                     send_req_data@data_of_direction:
  1125                           	callstack 0
  1126                           
  1127                           ; 10 bytes @ 0x62
  1128  0000C2                     	ds	10
  1129  0000CC                     send_req_data@direction_:
  1130                           	callstack 0
  1131                           
  1132                           ; 2 bytes @ 0x6C
  1133  0000CC                     	ds	2
  1134                           
  1135                           	psect	cstackCOMRAM
  1136  000001                     __pcstackCOMRAM:
  1137                           	callstack 0
  1138  000001                     ??_ISR:
  1139  000001                     
  1140                           ; 2 bytes @ 0x0
  1141  000001                     	ds	2
  1142  000003                     ??_config:
  1143  000003                     ??_reset_wifi:
  1144  000003                     ??_I2C_Wait:
  1145  000003                     ?_strlen:
  1146                           	callstack 0
  1147  000003                     ?_strchr:
  1148                           	callstack 0
  1149  000003                     ?___lwdiv:
  1150                           	callstack 0
  1151  000003                     uart_char_write@RF6:
  1152                           	callstack 0
  1153  000003                     uart_text_write@RF6:
  1154                           	callstack 0
  1155  000003                     do_move@dir:
  1156                           	callstack 0
  1157  000003                     ___lwdiv@dividend:
  1158                           	callstack 0
  1159  000003                     memset@p1:
  1160                           	callstack 0
  1161  000003                     strcat@to:
  1162                           	callstack 0
  1163  000003                     strcpy@to:
  1164                           	callstack 0
  1165  000003                     strlen@s:
  1166                           	callstack 0
  1167  000003                     strncpy@to:
  1168                           	callstack 0
  1169  000003                     strchr@ptr:
  1170                           	callstack 0
  1171                           
  1172                           ; 2 bytes @ 0x2
  1173  000003                     	ds	1
  1174  000004                     I2C_Master_Write@Data:
  1175                           	callstack 0
  1176                           
  1177                           ; 1 bytes @ 0x3
  1178  000004                     	ds	1
  1179  000005                     ??_uart_text_write:
  1180  000005                     ??_do_move:
  1181  000005                     ??_MPU6050_Init:
  1182  000005                     ?_MPU6050_Read:
  1183                           	callstack 0
  1184  000005                     ___lwdiv@divisor:
  1185                           	callstack 0
  1186  000005                     memset@c:
  1187                           	callstack 0
  1188  000005                     strcat@from:
  1189                           	callstack 0
  1190  000005                     strcpy@from:
  1191                           	callstack 0
  1192  000005                     strlen@cp:
  1193                           	callstack 0
  1194  000005                     strncpy@from:
  1195                           	callstack 0
  1196  000005                     strchr@chr:
  1197                           	callstack 0
  1198                           
  1199                           ; 2 bytes @ 0x4
  1200  000005                     	ds	2
  1201  000007                     ??_MPU6050_Read:
  1202  000007                     ?_strncmp:
  1203                           	callstack 0
  1204  000007                     uart_text_write@i:
  1205                           	callstack 0
  1206  000007                     find_string@string:
  1207                           	callstack 0
  1208  000007                     do_move@i:
  1209                           	callstack 0
  1210  000007                     ___lwdiv@quotient:
  1211                           	callstack 0
  1212  000007                     memset@n:
  1213                           	callstack 0
  1214  000007                     strcat@cp:
  1215                           	callstack 0
  1216  000007                     strcpy@cp:
  1217                           	callstack 0
  1218  000007                     strncpy@size:
  1219                           	callstack 0
  1220  000007                     strncmp@s1:
  1221                           	callstack 0
  1222                           
  1223                           ; 2 bytes @ 0x6
  1224  000007                     	ds	2
  1225  000009                     ??_connected_to_thingspeak:
  1226  000009                     ___lwdiv@counter:
  1227                           	callstack 0
  1228  000009                     UART_Write_AT@_data:
  1229                           	callstack 0
  1230  000009                     find_string@string_find:
  1231                           	callstack 0
  1232  000009                     memset@p:
  1233                           	callstack 0
  1234  000009                     strncpy@cp:
  1235                           	callstack 0
  1236  000009                     strncmp@s2:
  1237                           	callstack 0
  1238                           
  1239                           ; 2 bytes @ 0x8
  1240  000009                     	ds	1
  1241  00000A                     ?___lwmod:
  1242                           	callstack 0
  1243  00000A                     ___lwmod@dividend:
  1244                           	callstack 0
  1245                           
  1246                           ; 2 bytes @ 0x9
  1247  00000A                     	ds	1
  1248  00000B                     ??_find_string:
  1249  00000B                     strncmp@len:
  1250                           	callstack 0
  1251                           
  1252                           ; 2 bytes @ 0xA
  1253  00000B                     	ds	1
  1254  00000C                     ___lwmod@divisor:
  1255                           	callstack 0
  1256                           
  1257                           ; 2 bytes @ 0xB
  1258  00000C                     	ds	1
  1259  00000D                     ??_strncmp:
  1260  00000D                     MPU6050_Read@Az:
  1261                           	callstack 0
  1262                           
  1263                           ; 2 bytes @ 0xC
  1264  00000D                     	ds	1
  1265  00000E                     ?_strstr:
  1266                           	callstack 0
  1267  00000E                     ___lwmod@counter:
  1268                           	callstack 0
  1269  00000E                     find_string@length_of_string:
  1270                           	callstack 0
  1271  00000E                     strstr@s1:
  1272                           	callstack 0
  1273                           
  1274                           ; 2 bytes @ 0xD
  1275  00000E                     	ds	1
  1276  00000F                     ?_sprintf:
  1277                           	callstack 0
  1278  00000F                     MPU6050_Read@Gx:
  1279                           	callstack 0
  1280  00000F                     sprintf@sp:
  1281                           	callstack 0
  1282                           
  1283                           ; 2 bytes @ 0xE
  1284  00000F                     	ds	1
  1285  000010                     find_string@length_of_string_find:
  1286                           	callstack 0
  1287  000010                     strstr@s2:
  1288                           	callstack 0
  1289                           
  1290                           ; 2 bytes @ 0xF
  1291  000010                     	ds	1
  1292  000011                     MPU6050_Read@Gy:
  1293                           	callstack 0
  1294  000011                     sprintf@f:
  1295                           	callstack 0
  1296                           
  1297                           ; 2 bytes @ 0x10
  1298  000011                     	ds	1
  1299  000012                     find_string@mathced:
  1300                           	callstack 0
  1301  000012                     find_get_string@string:
  1302                           	callstack 0
  1303                           
  1304                           ; 2 bytes @ 0x11
  1305  000012                     	ds	1
  1306  000013                     MPU6050_Read@Gz:
  1307                           	callstack 0
  1308                           
  1309                           ; 2 bytes @ 0x12
  1310  000013                     	ds	1
  1311  000014                     find_string@index_string:
  1312                           	callstack 0
  1313  000014                     find_get_string@from:
  1314                           	callstack 0
  1315                           
  1316                           ; 2 bytes @ 0x13
  1317  000014                     	ds	1
  1318  000015                     sprintf@flag:
  1319                           	callstack 0
  1320  000015                     MPU6050_Read@T:
  1321                           	callstack 0
  1322                           
  1323                           ; 2 bytes @ 0x14
  1324  000015                     	ds	1
  1325  000016                     find_get_string@_from:
  1326                           	callstack 0
  1327  000016                     response_success@result:
  1328                           	callstack 0
  1329  000016                     sprintf@ap:
  1330                           	callstack 0
  1331                           
  1332                           ; 2 bytes @ 0x15
  1333  000016                     	ds	1
  1334  000017                     ??_disconnect_ap:
  1335  000017                     ??_ap_and_station_mode:
  1336  000017                     ??_mult_connection:
  1337  000017                     ??_connected_to_ap:
  1338  000017                     find_get_string@to:
  1339                           	callstack 0
  1340  000017                     MPU6050_Read@Ax:
  1341                           	callstack 0
  1342                           
  1343                           ; 2 bytes @ 0x16
  1344  000017                     	ds	1
  1345  000018                     sprintf@val:
  1346                           	callstack 0
  1347                           
  1348                           ; 2 bytes @ 0x17
  1349  000018                     	ds	1
  1350  000019                     ??_WiFi_Config:
  1351  000019                     find_get_string@_to:
  1352                           	callstack 0
  1353                           
  1354                           ; 1 bytes @ 0x18
  1355  000019                     	ds	1
  1356  00001A                     sprintf@prec:
  1357                           	callstack 0
  1358  00001A                     find_get_string@get_text:
  1359                           	callstack 0
  1360                           
  1361                           ; 2 bytes @ 0x19
  1362  00001A                     	ds	1
  1363  00001B                     sprintf@c:
  1364                           	callstack 0
  1365                           
  1366                           ; 1 bytes @ 0x1A
  1367  00001B                     	ds	1
  1368  00001C                     find_get_string@p2:
  1369                           	callstack 0
  1370  00001C                     send_data_direct@data_1:
  1371                           	callstack 0
  1372                           
  1373                           ; 2 bytes @ 0x1B
  1374  00001C                     	ds	2
  1375  00001E                     find_get_string@length:
  1376                           	callstack 0
  1377  00001E                     send_data_direct@RF6:
  1378                           	callstack 0
  1379                           
  1380                           ; 2 bytes @ 0x1D
  1381  00001E                     	ds	1
  1382  00001F                     find_get_string@p1:
  1383                           	callstack 0
  1384                           
  1385                           ; 2 bytes @ 0x1E
  1386  00001F                     	ds	1
  1387  000020                     send_data_direct@id_str:
  1388                           	callstack 0
  1389                           
  1390                           ; 2 bytes @ 0x1F
  1391  000020                     	ds	2
  1392  000022                     ??_send_data_direct:
  1393                           
  1394                           ; 1 bytes @ 0x21
  1395  000022                     	ds	2
  1396  000024                     send_data_direct@send_command_1:
  1397                           	callstack 0
  1398  000024                     send_data_direct@size_data_num:
  1399                           	callstack 0
  1400                           
  1401                           ; 2 bytes @ 0x23
  1402  000024                     	ds	2
  1403  000026                     send_data_direct@size_data_text_num:
  1404                           	callstack 0
  1405                           
  1406                           ; 2 bytes @ 0x25
  1407  000026                     	ds	2
  1408  000028                     ?_send_req_data:
  1409                           	callstack 0
  1410                           
  1411                           ; 2 bytes @ 0x27
  1412  000028                     	ds	2
  1413  00002A                     ??_send_req_data:
  1414                           
  1415                           ; 1 bytes @ 0x29
  1416  00002A                     	ds	1
  1417  00002B                     ??_main:
  1418                           
  1419                           ; 1 bytes @ 0x2A
  1420  00002B                     	ds	2
  1421  00002D                     main@direction_data:
  1422                           	callstack 0
  1423                           
  1424                           ; 2 bytes @ 0x2C
  1425  00002D                     	ds	2
  1426  00002F                     main@data_acc:
  1427                           	callstack 0
  1428                           
  1429                           ; 2 bytes @ 0x2E
  1430  00002F                     	ds	2
  1431  000031                     main@i:
  1432                           	callstack 0
  1433                           
  1434                           ; 2 bytes @ 0x30
  1435  000031                     	ds	2
  1436                           
  1437 ;;
  1438 ;;Main: autosize = 0, tempsize = 2, incstack = 0, save=0
  1439 ;;
  1440 ;; *************** function _main *****************
  1441 ;; Defined at:
  1442 ;;		line 1293 in file "newmain.c"
  1443 ;; Parameters:    Size  Location     Type
  1444 ;;		None
  1445 ;; Auto vars:     Size  Location     Type
  1446 ;;  i               2   48[COMRAM] int 
  1447 ;;  data_acc        2   46[COMRAM] int 
  1448 ;;  direction_da    2   44[COMRAM] int 
  1449 ;; Return value:  Size  Location     Type
  1450 ;;                  1    wreg      void 
  1451 ;; Registers used:
  1452 ;;		wreg, fsr0l, fsr0h, fsr1l, fsr1h, fsr2l, fsr2h, status,2, status,0, tblptrl, tblptrh, tblptru, prodl, prodh, cstack
  1453 ;; Tracked objects:
  1454 ;;		On entry : 0/0
  1455 ;;		On exit  : 0/0
  1456 ;;		Unchanged: 0/0
  1457 ;; Data sizes:     COMRAM   BANK0   BANK1   BANK2   BANK3   BANK4   BANK5   BANK6   BANK7   BANK8   BANK9  BANK10  BANK1
      +1  BANK12  BANK13  BANK14  BANK15
  1458 ;;      Params:         0       0       0       0       0       0       0       0       0       0       0       0       
      +0       0       0       0       0
  1459 ;;      Locals:         6       0       0       0       0       0       0       0       0       0       0       0       
      +0       0       0       0       0
  1460 ;;      Temps:          2       0       0       0       0       0       0       0       0       0       0       0       
      +0       0       0       0       0
  1461 ;;      Totals:         8       0       0       0       0       0       0       0       0       0       0       0       
      +0       0       0       0       0
  1462 ;;Total ram usage:        8 bytes
  1463 ;; Hardware stack levels required when called:    7
  1464 ;; This function calls:
  1465 ;;		_MPU6050_Init
  1466 ;;		_MPU6050_Read
  1467 ;;		_WiFi_Config
  1468 ;;		_config
  1469 ;;		_connected_to_thingspeak
  1470 ;;		_do_move
  1471 ;;		_send_req_data
  1472 ;; This function is called by:
  1473 ;;		Startup code after reset
  1474 ;; This function uses a non-reentrant model
  1475 ;;
  1476                           
  1477                           	psect	text0
  1478  000364                     __ptext0:
  1479                           	callstack 0
  1480  000364                     _main:
  1481                           	callstack 24
  1482  000364                     
  1483                           ;newmain.c: 1295: TRISE=0;
  1484  000364  0E00               	movlw	0
  1485  000366  6E96               	movwf	150,c	;volatile
  1486                           
  1487                           ;newmain.c: 1296: TRISH=0;
  1488  000368  0E00               	movlw	0
  1489  00036A  6E99               	movwf	153,c	;volatile
  1490                           
  1491                           ;newmain.c: 1297: int direction_data;;newmain.c: 1298: int data_acc;;newmain.c: 1299: in
      +                          t i;;newmain.c: 1300: i=0;
  1492  00036C  0E00               	movlw	0
  1493  00036E  6E32               	movwf	(main@i+1)^0,c
  1494  000370  0E00               	movlw	0
  1495  000372  6E31               	movwf	main@i^0,c
  1496  000374                     
  1497                           ;newmain.c: 1301: config();
  1498  000374  EC93  F008         	call	_config	;wreg free
  1499  000378                     
  1500                           ;newmain.c: 1302: _delay((unsigned long)((200)*(8000000/4000.0)));
  1501  000378  0E03               	movlw	3
  1502  00037A  6E2C               	movwf	(??_main+1)^0,c
  1503  00037C  0E08               	movlw	8
  1504  00037E  6E2B               	movwf	??_main^0,c
  1505  000380  0E77               	movlw	119
  1506  000382                     u1737:
  1507  000382  2EE8               	decfsz	wreg,f,c
  1508  000384  D7FE               	bra	u1737
  1509  000386  2E2B               	decfsz	??_main^0,f,c
  1510  000388  D7FC               	bra	u1737
  1511  00038A  2E2C               	decfsz	(??_main+1)^0,f,c
  1512  00038C  D7FA               	bra	u1737
  1513  00038E  F000               	nop	
  1514  000390                     
  1515                           ;newmain.c: 1303: WiFi_Config();
  1516  000390  ECB6  F003         	call	_WiFi_Config	;wreg free
  1517  000394                     
  1518                           ;newmain.c: 1304: _delay((unsigned long)((200)*(8000000/4000.0)));
  1519  000394  0E03               	movlw	3
  1520  000396  6E2C               	movwf	(??_main+1)^0,c
  1521  000398  0E08               	movlw	8
  1522  00039A  6E2B               	movwf	??_main^0,c
  1523  00039C  0E77               	movlw	119
  1524  00039E                     u1747:
  1525  00039E  2EE8               	decfsz	wreg,f,c
  1526  0003A0  D7FE               	bra	u1747
  1527  0003A2  2E2B               	decfsz	??_main^0,f,c
  1528  0003A4  D7FC               	bra	u1747
  1529  0003A6  2E2C               	decfsz	(??_main+1)^0,f,c
  1530  0003A8  D7FA               	bra	u1747
  1531  0003AA  F000               	nop	
  1532  0003AC                     
  1533                           ;newmain.c: 1305: connected_to_thingspeak();
  1534  0003AC  ECE3  F009         	call	_connected_to_thingspeak	;wreg free
  1535  0003B0                     
  1536                           ;newmain.c: 1306: _delay((unsigned long)((200)*(8000000/4000.0)));
  1537  0003B0  0E03               	movlw	3
  1538  0003B2  6E2C               	movwf	(??_main+1)^0,c
  1539  0003B4  0E08               	movlw	8
  1540  0003B6  6E2B               	movwf	??_main^0,c
  1541  0003B8  0E77               	movlw	119
  1542  0003BA                     u1757:
  1543  0003BA  2EE8               	decfsz	wreg,f,c
  1544  0003BC  D7FE               	bra	u1757
  1545  0003BE  2E2B               	decfsz	??_main^0,f,c
  1546  0003C0  D7FC               	bra	u1757
  1547  0003C2  2E2C               	decfsz	(??_main+1)^0,f,c
  1548  0003C4  D7FA               	bra	u1757
  1549  0003C6  F000               	nop	
  1550  0003C8                     
  1551                           ;newmain.c: 1312: RE0=1;
  1552  0003C8  8084               	bsf	3972,0,c	;volatile
  1553  0003CA                     
  1554                           ;newmain.c: 1313: RH0=1;
  1555  0003CA  8087               	bsf	3975,0,c	;volatile
  1556  0003CC                     
  1557                           ;newmain.c: 1314: MPU6050_Init();
  1558  0003CC  EC7B  F006         	call	_MPU6050_Init	;wreg free
  1559  0003D0                     l3038:
  1560                           
  1561                           ;newmain.c: 1317: direction_data=send_req_data();
  1562  0003D0  EC62  F002         	call	_send_req_data	;wreg free
  1563  0003D4  C028  F02D         	movff	?_send_req_data,main@direction_data
  1564  0003D8  C029  F02E         	movff	?_send_req_data+1,main@direction_data+1
  1565  0003DC                     
  1566                           ;newmain.c: 1318: do_move(direction_data);
  1567  0003DC  C02D  F003         	movff	main@direction_data,do_move@dir
  1568  0003E0  C02E  F004         	movff	main@direction_data+1,do_move@dir+1
  1569  0003E4  EC4D  F000         	call	_do_move	;wreg free
  1570  0003E8                     
  1571                           ;newmain.c: 1319: data_acc=MPU6050_Read();
  1572  0003E8  EC12  F005         	call	_MPU6050_Read	;wreg free
  1573  0003EC  C005  F02F         	movff	?_MPU6050_Read,main@data_acc
  1574  0003F0  C006  F030         	movff	?_MPU6050_Read+1,main@data_acc+1
  1575  0003F4                     
  1576                           ;newmain.c: 1320: if(data_acc>500){
  1577  0003F4  BE30               	btfsc	(main@data_acc+1)^0,7,c
  1578  0003F6  EF06  F002         	goto	u1691
  1579  0003FA  0EF5               	movlw	245
  1580  0003FC  5C2F               	subwf	main@data_acc^0,w,c
  1581  0003FE  0E01               	movlw	1
  1582  000400  5830               	subwfb	(main@data_acc+1)^0,w,c
  1583  000402  A0D8               	btfss	status,0,c
  1584  000404  EF06  F002         	goto	u1691
  1585  000408  EF08  F002         	goto	u1690
  1586  00040C                     u1691:
  1587  00040C  EF2C  F002         	goto	l3066
  1588  000410                     u1690:
  1589  000410                     
  1590                           ;newmain.c: 1321: RE7=1;
  1591  000410  8E84               	bsf	3972,7,c	;volatile
  1592                           
  1593                           ;newmain.c: 1322: RH7=1;
  1594  000412  8E87               	bsf	3975,7,c	;volatile
  1595                           
  1596                           ;newmain.c: 1323: while(i>10){
  1597  000414  EF1A  F002         	goto	l3062
  1598  000418                     l3048:
  1599                           
  1600                           ;newmain.c: 1324: i++;
  1601  000418  4A31               	infsnz	main@i^0,f,c
  1602  00041A  2A32               	incf	(main@i+1)^0,f,c
  1603  00041C                     
  1604                           ;newmain.c: 1325: RE5=1;
  1605  00041C  8A84               	bsf	3972,5,c	;volatile
  1606  00041E                     
  1607                           ;newmain.c: 1326: RH5=1;
  1608  00041E  8A87               	bsf	3975,5,c	;volatile
  1609  000420                     
  1610                           ;newmain.c: 1327: _delay((unsigned long)((500)*(8000000/4000000.0)));
  1611  000420  0EC8               	movlw	200
  1612  000422                     u1767:
  1613  000422  D000               	nop2	
  1614  000424  2EE8               	decfsz	wreg,f,c
  1615  000426  D7FD               	bra	u1767
  1616  000428                     
  1617                           ;newmain.c: 1328: RE5=0;
  1618  000428  9A84               	bcf	3972,5,c	;volatile
  1619  00042A                     
  1620                           ;newmain.c: 1329: RH5=0;
  1621  00042A  9A87               	bcf	3975,5,c	;volatile
  1622  00042C                     
  1623                           ;newmain.c: 1330: _delay((unsigned long)((500)*(8000000/4000000.0)));
  1624  00042C  0EC8               	movlw	200
  1625  00042E                     u1777:
  1626  00042E  D000               	nop2	
  1627  000430  2EE8               	decfsz	wreg,f,c
  1628  000432  D7FD               	bra	u1777
  1629  000434                     l3062:
  1630  000434  BE32               	btfsc	(main@i+1)^0,7,c
  1631  000436  EF28  F002         	goto	u1700
  1632  00043A  5032               	movf	(main@i+1)^0,w,c
  1633  00043C  E107               	bnz	u1701
  1634  00043E  0E0B               	movlw	11
  1635  000440  5C31               	subwf	main@i^0,w,c
  1636  000442  B0D8               	btfsc	status,0,c
  1637  000444  EF26  F002         	goto	u1701
  1638  000448  EF28  F002         	goto	u1700
  1639  00044C                     u1701:
  1640  00044C  EF0C  F002         	goto	l3048
  1641  000450                     u1700:
  1642  000450                     
  1643                           ;newmain.c: 1332: };newmain.c: 1333: i=0;
  1644  000450  0E00               	movlw	0
  1645  000452  6E32               	movwf	(main@i+1)^0,c
  1646  000454  0E00               	movlw	0
  1647  000456  6E31               	movwf	main@i^0,c
  1648  000458                     l3066:
  1649                           
  1650                           ;newmain.c: 1334: };newmain.c: 1335: if(data_acc < -500){
  1651  000458  AE30               	btfss	(main@data_acc+1)^0,7,c
  1652  00045A  EF38  F002         	goto	u1711
  1653  00045E  0E0C               	movlw	12
  1654  000460  5C2F               	subwf	main@data_acc^0,w,c
  1655  000462  0EFE               	movlw	254
  1656  000464  5830               	subwfb	(main@data_acc+1)^0,w,c
  1657  000466  B0D8               	btfsc	status,0,c
  1658  000468  EF38  F002         	goto	u1711
  1659  00046C  EF3A  F002         	goto	u1710
  1660  000470                     u1711:
  1661  000470  EFE8  F001         	goto	l3038
  1662  000474                     u1710:
  1663  000474                     
  1664                           ;newmain.c: 1336: RE7=0;
  1665  000474  9E84               	bcf	3972,7,c	;volatile
  1666                           
  1667                           ;newmain.c: 1337: RH7=0;
  1668  000476  9E87               	bcf	3975,7,c	;volatile
  1669                           
  1670                           ;newmain.c: 1338: while(i>10){
  1671  000478  EF4C  F002         	goto	l3084
  1672  00047C                     l3070:
  1673                           
  1674                           ;newmain.c: 1339: i++;
  1675  00047C  4A31               	infsnz	main@i^0,f,c
  1676  00047E  2A32               	incf	(main@i+1)^0,f,c
  1677  000480                     
  1678                           ;newmain.c: 1340: RE5=1;
  1679  000480  8A84               	bsf	3972,5,c	;volatile
  1680  000482                     
  1681                           ;newmain.c: 1341: RH5=1;
  1682  000482  8A87               	bsf	3975,5,c	;volatile
  1683  000484                     
  1684                           ;newmain.c: 1342: _delay((unsigned long)((500)*(8000000/4000000.0)));
  1685  000484  0EC8               	movlw	200
  1686  000486                     u1787:
  1687  000486  D000               	nop2	
  1688  000488  2EE8               	decfsz	wreg,f,c
  1689  00048A  D7FD               	bra	u1787
  1690  00048C                     
  1691                           ;newmain.c: 1343: RE5=0;
  1692  00048C  9A84               	bcf	3972,5,c	;volatile
  1693  00048E                     
  1694                           ;newmain.c: 1344: RH5=0;
  1695  00048E  9A87               	bcf	3975,5,c	;volatile
  1696  000490                     
  1697                           ;newmain.c: 1345: _delay((unsigned long)((500)*(8000000/4000000.0)));
  1698  000490  0EC8               	movlw	200
  1699  000492                     u1797:
  1700  000492  D000               	nop2	
  1701  000494  2EE8               	decfsz	wreg,f,c
  1702  000496  D7FD               	bra	u1797
  1703  000498                     l3084:
  1704  000498  BE32               	btfsc	(main@i+1)^0,7,c
  1705  00049A  EF5A  F002         	goto	u1720
  1706  00049E  5032               	movf	(main@i+1)^0,w,c
  1707  0004A0  E107               	bnz	u1721
  1708  0004A2  0E0B               	movlw	11
  1709  0004A4  5C31               	subwf	main@i^0,w,c
  1710  0004A6  B0D8               	btfsc	status,0,c
  1711  0004A8  EF58  F002         	goto	u1721
  1712  0004AC  EF5A  F002         	goto	u1720
  1713  0004B0                     u1721:
  1714  0004B0  EF3E  F002         	goto	l3070
  1715  0004B4                     u1720:
  1716  0004B4                     
  1717                           ;newmain.c: 1347: };newmain.c: 1348: i=0;
  1718  0004B4  0E00               	movlw	0
  1719  0004B6  6E32               	movwf	(main@i+1)^0,c
  1720  0004B8  0E00               	movlw	0
  1721  0004BA  6E31               	movwf	main@i^0,c
  1722  0004BC  EFE8  F001         	goto	l3038
  1723  0004C0  EF4B  F000         	goto	start
  1724  0004C4                     __end_of_main:
  1725                           	callstack 0
  1726                           
  1727 ;; *************** function _send_req_data *****************
  1728 ;; Defined at:
  1729 ;;		line 1055 in file "newmain.c"
  1730 ;; Parameters:    Size  Location     Type
  1731 ;;		None
  1732 ;; Auto vars:     Size  Location     Type
  1733 ;;  link_req       90    0[BANK0 ] unsigned char [90]
  1734 ;;  data_of_dire   10   98[BANK0 ] unsigned char [10]
  1735 ;;  id_             8   90[BANK0 ] unsigned char [8]
  1736 ;;  direction_      2  108[BANK0 ] int 
  1737 ;; Return value:  Size  Location     Type
  1738 ;;                  2   39[COMRAM] int 
  1739 ;; Registers used:
  1740 ;;		wreg, fsr0l, fsr0h, fsr1l, fsr1h, fsr2l, fsr2h, status,2, status,0, tblptrl, tblptrh, tblptru, prodl, prodh, cstack
  1741 ;; Tracked objects:
  1742 ;;		On entry : 0/0
  1743 ;;		On exit  : 0/0
  1744 ;;		Unchanged: 0/0
  1745 ;; Data sizes:     COMRAM   BANK0   BANK1   BANK2   BANK3   BANK4   BANK5   BANK6   BANK7   BANK8   BANK9  BANK10  BANK1
      +1  BANK12  BANK13  BANK14  BANK15
  1746 ;;      Params:         2       0       0       0       0       0       0       0       0       0       0       0       
      +0       0       0       0       0
  1747 ;;      Locals:         0     110       0       0       0       0       0       0       0       0       0       0       
      +0       0       0       0       0
  1748 ;;      Temps:          1       0       0       0       0       0       0       0       0       0       0       0       
      +0       0       0       0       0
  1749 ;;      Totals:         3     110       0       0       0       0       0       0       0       0       0       0       
      +0       0       0       0       0
  1750 ;;Total ram usage:      113 bytes
  1751 ;; Hardware stack levels used:    1
  1752 ;; Hardware stack levels required when called:    6
  1753 ;; This function calls:
  1754 ;;		_find_get_string
  1755 ;;		_find_string
  1756 ;;		_reset_buff
  1757 ;;		_send_data_direct
  1758 ;; This function is called by:
  1759 ;;		_main
  1760 ;; This function uses a non-reentrant model
  1761 ;;
  1762                           
  1763                           	psect	text1
  1764  0004C4                     __ptext1:
  1765                           	callstack 0
  1766  0004C4                     _send_req_data:
  1767                           	callstack 24
  1768  0004C4                     
  1769                           ;newmain.c: 1056: char data_of_direction[10];;newmain.c: 1057: char id_[]="1281214";
  1770  0004C4  EE20  F0E2         	lfsr	2,send_req_data@F4865
  1771  0004C8  EE10  F0BA         	lfsr	1,send_req_data@id_
  1772  0004CC  0E07               	movlw	7
  1773  0004CE                     u1441:
  1774  0004CE  CFDB FFE3          	movff	plusw2,plusw1
  1775  0004D2  06E8               	decf	wreg,f,c
  1776  0004D4  E2FC               	bc	u1441
  1777                           
  1778                           ;newmain.c: 1058: int direction_;;newmain.c: 1059: char link_req[]="https://api.thingspe
      +                          ak.com/channels/1281214/feeds.json?api_key=XLPIDXXIISTJS78Z&results=1";
  1779  0004D6  EE22  F000         	lfsr	2,send_req_data@F4868
  1780  0004DA  EE10  F060         	lfsr	1,send_req_data@link_req
  1781  0004DE  0E59               	movlw	89
  1782  0004E0                     u1451:
  1783  0004E0  CFDB FFE3          	movff	plusw2,plusw1
  1784  0004E4  06E8               	decf	wreg,f,c
  1785  0004E6  E2FC               	bc	u1451
  1786  0004E8                     
  1787                           ;newmain.c: 1060: reset_buff();
  1788  0004E8  ECBB  F009         	call	_reset_buff	;wreg free
  1789  0004EC                     
  1790                           ;newmain.c: 1061: send_data_direct( link_req ,1 ,id_);
  1791  0004EC  0E60               	movlw	low send_req_data@link_req
  1792  0004EE  6E1C               	movwf	send_data_direct@data_1^0,c
  1793  0004F0  0E00               	movlw	high send_req_data@link_req
  1794  0004F2  6E1D               	movwf	(send_data_direct@data_1+1)^0,c
  1795  0004F4  0E00               	movlw	0
  1796  0004F6  6E1F               	movwf	(send_data_direct@RF6+1)^0,c
  1797  0004F8  0E01               	movlw	1
  1798  0004FA  6E1E               	movwf	send_data_direct@RF6^0,c
  1799  0004FC  0EBA               	movlw	low send_req_data@id_
  1800  0004FE  6E20               	movwf	send_data_direct@id_str^0,c
  1801  000500  0E00               	movlw	high send_req_data@id_
  1802  000502  6E21               	movwf	(send_data_direct@id_str+1)^0,c
  1803  000504  EC11  F003         	call	_send_data_direct	;wreg free
  1804  000508                     
  1805                           ;newmain.c: 1062: _delay((unsigned long)((50)*(8000000/4000.0)));
  1806  000508  0E82               	movlw	130
  1807  00050A  6E2A               	movwf	??_send_req_data^0,c
  1808  00050C  0EDE               	movlw	222
  1809  00050E                     u1807:
  1810  00050E  2EE8               	decfsz	wreg,f,c
  1811  000510  D7FE               	bra	u1807
  1812  000512  2E2A               	decfsz	??_send_req_data^0,f,c
  1813  000514  D7FC               	bra	u1807
  1814  000516                     
  1815                           ;newmain.c: 1063: find_get_string(rx_buff, "dir8_", 5, "_", 0,data_of_direction);
  1816  000516  0E5A               	movlw	low _rx_buff
  1817  000518  6E12               	movwf	find_get_string@string^0,c
  1818  00051A  0E02               	movlw	high _rx_buff
  1819  00051C  6E13               	movwf	(find_get_string@string+1)^0,c
  1820  00051E  0ECB               	movlw	low STR_47
  1821  000520  6E14               	movwf	find_get_string@from^0,c
  1822  000522  0EBF               	movlw	high STR_47
  1823  000524  6E15               	movwf	(find_get_string@from+1)^0,c
  1824  000526  0E05               	movlw	5
  1825  000528  6E16               	movwf	find_get_string@_from^0,c
  1826  00052A  0ECF               	movlw	low (STR_47+4)
  1827  00052C  6E17               	movwf	find_get_string@to^0,c
  1828  00052E  0EBF               	movlw	high (STR_47+4)
  1829  000530  6E18               	movwf	(find_get_string@to+1)^0,c
  1830  000532  0E00               	movlw	0
  1831  000534  6E19               	movwf	find_get_string@_to^0,c
  1832  000536  0EC2               	movlw	low send_req_data@data_of_direction
  1833  000538  6E1A               	movwf	find_get_string@get_text^0,c
  1834  00053A  0E00               	movlw	high send_req_data@data_of_direction
  1835  00053C  6E1B               	movwf	(find_get_string@get_text+1)^0,c
  1836  00053E  ECC3  F007         	call	_find_get_string	;wreg free
  1837  000542                     
  1838                           ;newmain.c: 1064: if(find_string(data_of_direction,"up")==1){
  1839  000542  0EC2               	movlw	low send_req_data@data_of_direction
  1840  000544  6E07               	movwf	find_string@string^0,c
  1841  000546  0E00               	movlw	high send_req_data@data_of_direction
  1842  000548  6E08               	movwf	(find_string@string+1)^0,c
  1843  00054A  0EF6               	movlw	low STR_49
  1844  00054C  6E09               	movwf	find_string@string_find^0,c
  1845  00054E  0EBF               	movlw	high STR_49
  1846  000550  6E0A               	movwf	(find_string@string_find+1)^0,c
  1847  000552  EC35  F004         	call	_find_string	;wreg free
  1848  000556  06E8               	decf	wreg,f,c
  1849  000558  A4D8               	btfss	status,2,c
  1850  00055A  EFB1  F002         	goto	u1461
  1851  00055E  EFB3  F002         	goto	u1460
  1852  000562                     u1461:
  1853  000562  EFBA  F002         	goto	l2760
  1854  000566                     u1460:
  1855  000566                     
  1856                           ;newmain.c: 1066: direction_=1;
  1857  000566  0E00               	movlw	0
  1858  000568  0100               	movlb	0	; () banked
  1859  00056A  6FCD               	movwf	(send_req_data@direction_+1)& (0+255),b
  1860  00056C  0E01               	movlw	1
  1861  00056E  6FCC               	movwf	send_req_data@direction_& (0+255),b
  1862                           
  1863                           ;newmain.c: 1067: }
  1864  000570  EF0A  F003         	goto	l2774
  1865  000574                     l2760:
  1866                           
  1867                           ;newmain.c: 1068: else if(find_string(data_of_direction,"down")==1){
  1868  000574  0EC2               	movlw	low send_req_data@data_of_direction
  1869  000576  6E07               	movwf	find_string@string^0,c
  1870  000578  0E00               	movlw	high send_req_data@data_of_direction
  1871  00057A  6E08               	movwf	(find_string@string+1)^0,c
  1872  00057C  0EE2               	movlw	low STR_50
  1873  00057E  6E09               	movwf	find_string@string_find^0,c
  1874  000580  0EBF               	movlw	high STR_50
  1875  000582  6E0A               	movwf	(find_string@string_find+1)^0,c
  1876  000584  EC35  F004         	call	_find_string	;wreg free
  1877  000588  06E8               	decf	wreg,f,c
  1878  00058A  A4D8               	btfss	status,2,c
  1879  00058C  EFCA  F002         	goto	u1471
  1880  000590  EFCC  F002         	goto	u1470
  1881  000594                     u1471:
  1882  000594  EFD3  F002         	goto	l2764
  1883  000598                     u1470:
  1884  000598                     
  1885                           ;newmain.c: 1069: direction_=2;
  1886  000598  0E00               	movlw	0
  1887  00059A  0100               	movlb	0	; () banked
  1888  00059C  6FCD               	movwf	(send_req_data@direction_+1)& (0+255),b
  1889  00059E  0E02               	movlw	2
  1890  0005A0  6FCC               	movwf	send_req_data@direction_& (0+255),b
  1891                           
  1892                           ;newmain.c: 1070: }
  1893  0005A2  EF0A  F003         	goto	l2774
  1894  0005A6                     l2764:
  1895                           
  1896                           ;newmain.c: 1071: else if(find_string(data_of_direction,"right")==1){
  1897  0005A6  0EC2               	movlw	low send_req_data@data_of_direction
  1898  0005A8  6E07               	movwf	find_string@string^0,c
  1899  0005AA  0E00               	movlw	high send_req_data@data_of_direction
  1900  0005AC  6E08               	movwf	(find_string@string+1)^0,c
  1901  0005AE  0ED1               	movlw	low STR_51
  1902  0005B0  6E09               	movwf	find_string@string_find^0,c
  1903  0005B2  0EBF               	movlw	high STR_51
  1904  0005B4  6E0A               	movwf	(find_string@string_find+1)^0,c
  1905  0005B6  EC35  F004         	call	_find_string	;wreg free
  1906  0005BA  06E8               	decf	wreg,f,c
  1907  0005BC  A4D8               	btfss	status,2,c
  1908  0005BE  EFE3  F002         	goto	u1481
  1909  0005C2  EFE5  F002         	goto	u1480
  1910  0005C6                     u1481:
  1911  0005C6  EFEC  F002         	goto	l2768
  1912  0005CA                     u1480:
  1913  0005CA                     
  1914                           ;newmain.c: 1072: direction_=3;
  1915  0005CA  0E00               	movlw	0
  1916  0005CC  0100               	movlb	0	; () banked
  1917  0005CE  6FCD               	movwf	(send_req_data@direction_+1)& (0+255),b
  1918  0005D0  0E03               	movlw	3
  1919  0005D2  6FCC               	movwf	send_req_data@direction_& (0+255),b
  1920                           
  1921                           ;newmain.c: 1073: }
  1922  0005D4  EF0A  F003         	goto	l2774
  1923  0005D8                     l2768:
  1924                           
  1925                           ;newmain.c: 1074: else if(find_string(data_of_direction,"left")==1){
  1926  0005D8  0EC2               	movlw	low send_req_data@data_of_direction
  1927  0005DA  6E07               	movwf	find_string@string^0,c
  1928  0005DC  0E00               	movlw	high send_req_data@data_of_direction
  1929  0005DE  6E08               	movwf	(find_string@string+1)^0,c
  1930  0005E0  0EE7               	movlw	low STR_52
  1931  0005E2  6E09               	movwf	find_string@string_find^0,c
  1932  0005E4  0EBF               	movlw	high STR_52
  1933  0005E6  6E0A               	movwf	(find_string@string_find+1)^0,c
  1934  0005E8  EC35  F004         	call	_find_string	;wreg free
  1935  0005EC  06E8               	decf	wreg,f,c
  1936  0005EE  A4D8               	btfss	status,2,c
  1937  0005F0  EFFC  F002         	goto	u1491
  1938  0005F4  EFFE  F002         	goto	u1490
  1939  0005F8                     u1491:
  1940  0005F8  EF05  F003         	goto	l2772
  1941  0005FC                     u1490:
  1942  0005FC                     
  1943                           ;newmain.c: 1075: direction_=4;
  1944  0005FC  0E00               	movlw	0
  1945  0005FE  0100               	movlb	0	; () banked
  1946  000600  6FCD               	movwf	(send_req_data@direction_+1)& (0+255),b
  1947  000602  0E04               	movlw	4
  1948  000604  6FCC               	movwf	send_req_data@direction_& (0+255),b
  1949                           
  1950                           ;newmain.c: 1076: }else{
  1951  000606  EF0A  F003         	goto	l2774
  1952  00060A                     l2772:
  1953                           
  1954                           ;newmain.c: 1077: direction_=0;
  1955  00060A  0E00               	movlw	0
  1956  00060C  0100               	movlb	0	; () banked
  1957  00060E  6FCD               	movwf	(send_req_data@direction_+1)& (0+255),b
  1958  000610  0E00               	movlw	0
  1959  000612  6FCC               	movwf	send_req_data@direction_& (0+255),b
  1960  000614                     l2774:
  1961                           
  1962                           ; BSR set to: 0
  1963                           ;newmain.c: 1078: };newmain.c: 1079: reset_buff();
  1964  000614  ECBB  F009         	call	_reset_buff	;wreg free
  1965  000618                     
  1966                           ;newmain.c: 1080: return (direction_);
  1967  000618  C0CC  F028         	movff	send_req_data@direction_,?_send_req_data
  1968  00061C  C0CD  F029         	movff	send_req_data@direction_+1,?_send_req_data+1
  1969  000620  0012               	return		;funcret
  1970  000622                     __end_of_send_req_data:
  1971                           	callstack 0
  1972                           
  1973 ;; *************** function _send_data_direct *****************
  1974 ;; Defined at:
  1975 ;;		line 988 in file "newmain.c"
  1976 ;; Parameters:    Size  Location     Type
  1977 ;;  data_1          2   27[COMRAM] PTR unsigned char 
  1978 ;;		 -> send_req_data@link_req(90), 
  1979 ;;  RF6             2   29[COMRAM] int 
  1980 ;;  id_str          2   31[COMRAM] PTR unsigned char 
  1981 ;;		 -> send_req_data@id_(8), send_data_when_ordered@connection_id_(6), 
  1982 ;; Auto vars:     Size  Location     Type
  1983 ;;  size_data_te    2   37[COMRAM] PTR unsigned char 
  1984 ;;  size_data_nu    2   35[COMRAM] unsigned int 
  1985 ;;  send_command    0   35[COMRAM] unsigned char [0]
  1986 ;;  closed_data     0    0        unsigned char [0]
  1987 ;; Return value:  Size  Location     Type
  1988 ;;                  1    wreg      void 
  1989 ;; Registers used:
  1990 ;;		wreg, fsr0l, fsr0h, fsr2l, fsr2h, status,2, status,0, tblptrl, tblptrh, tblptru, prodl, prodh, cstack
  1991 ;; Tracked objects:
  1992 ;;		On entry : 0/0
  1993 ;;		On exit  : 0/0
  1994 ;;		Unchanged: 0/0
  1995 ;; Data sizes:     COMRAM   BANK0   BANK1   BANK2   BANK3   BANK4   BANK5   BANK6   BANK7   BANK8   BANK9  BANK10  BANK1
      +1  BANK12  BANK13  BANK14  BANK15
  1996 ;;      Params:         6       0       0       0       0       0       0       0       0       0       0       0       
      +0       0       0       0       0
  1997 ;;      Locals:         4       0       0       0       0       0       0       0       0       0       0       0       
      +0       0       0       0       0
  1998 ;;      Temps:          2       0       0       0       0       0       0       0       0       0       0       0       
      +0       0       0       0       0
  1999 ;;      Totals:        12       0       0       0       0       0       0       0       0       0       0       0       
      +0       0       0       0       0
  2000 ;;Total ram usage:       12 bytes
  2001 ;; Hardware stack levels used:    1
  2002 ;; Hardware stack levels required when called:    5
  2003 ;; This function calls:
  2004 ;;		_check_ok
  2005 ;;		_new_line
  2006 ;;		_reset_buff
  2007 ;;		_sprintf
  2008 ;;		_strcat
  2009 ;;		_strcpy
  2010 ;;		_strlen
  2011 ;;		_uart_text_write
  2012 ;; This function is called by:
  2013 ;;		_send_req_data
  2014 ;;		_send_data_when_ordered
  2015 ;; This function uses a non-reentrant model
  2016 ;;
  2017                           
  2018                           	psect	text2
  2019  000622                     __ptext2:
  2020                           	callstack 0
  2021  000622                     _send_data_direct:
  2022                           	callstack 24
  2023  000622                     
  2024                           ;newmain.c: 989: unsigned int size_data_num;;newmain.c: 990: char *size_data_text_num;;n
      +                          ewmain.c: 991: char send_command_1[];;newmain.c: 992: char closed_data[];;newmain.c: 993
      +                          : reset_buff();
  2025  000622  ECBB  F009         	call	_reset_buff	;wreg free
  2026  000626                     
  2027                           ;newmain.c: 994: size_data_num = strlen(data_1);
  2028  000626  C01C  F003         	movff	send_data_direct@data_1,strlen@s
  2029  00062A  C01D  F004         	movff	send_data_direct@data_1+1,strlen@s+1
  2030  00062E  ECBB  F008         	call	_strlen	;wreg free
  2031  000632  C003  F024         	movff	?_strlen,send_data_direct@size_data_num
  2032  000636  C004  F025         	movff	?_strlen+1,send_data_direct@size_data_num+1
  2033  00063A                     
  2034                           ;newmain.c: 995: sprintf(size_data_text_num, "%u", size_data_num);
  2035  00063A  C026  F00F         	movff	send_data_direct@size_data_text_num,sprintf@sp
  2036  00063E  C027  F010         	movff	send_data_direct@size_data_text_num+1,sprintf@sp+1
  2037  000642  0EF9               	movlw	low STR_27
  2038  000644  6E11               	movwf	sprintf@f^0,c
  2039  000646  0EBF               	movlw	high STR_27
  2040  000648  6E12               	movwf	(sprintf@f+1)^0,c
  2041  00064A  C024  F013         	movff	send_data_direct@size_data_num,?_sprintf+4
  2042  00064E  C025  F014         	movff	send_data_direct@size_data_num+1,?_sprintf+5
  2043  000652  EC00  F001         	call	_sprintf	;wreg free
  2044  000656                     
  2045                           ;newmain.c: 997: if(RF6==0){
  2046  000656  501E               	movf	send_data_direct@RF6^0,w,c
  2047  000658  101F               	iorwf	(send_data_direct@RF6+1)^0,w,c
  2048  00065A  A4D8               	btfss	status,2,c
  2049  00065C  EF32  F003         	goto	u1391
  2050  000660  EF34  F003         	goto	u1390
  2051  000664                     u1391:
  2052  000664  EF52  F003         	goto	l2658
  2053  000668                     u1390:
  2054  000668                     
  2055                           ;newmain.c: 998: strcpy(send_command_1, "AT+CIPSEND=");
  2056  000668  0E24               	movlw	low send_data_direct@send_command_1
  2057  00066A  6E03               	movwf	strcpy@to^0,c
  2058  00066C  0E00               	movlw	high send_data_direct@send_command_1
  2059  00066E  6E04               	movwf	(strcpy@to+1)^0,c
  2060  000670  0E5D               	movlw	low STR_28
  2061  000672  6E05               	movwf	strcpy@from^0,c
  2062  000674  0EBF               	movlw	high STR_28
  2063  000676  6E06               	movwf	(strcpy@from+1)^0,c
  2064  000678  EC2D  F009         	call	_strcpy	;wreg free
  2065  00067C                     
  2066                           ;newmain.c: 999: strcat(send_command_1,size_data_text_num);
  2067  00067C  0E24               	movlw	low send_data_direct@send_command_1
  2068  00067E  6E03               	movwf	strcat@to^0,c
  2069  000680  0E00               	movlw	high send_data_direct@send_command_1
  2070  000682  6E04               	movwf	(strcat@to+1)^0,c
  2071  000684  C026  F005         	movff	send_data_direct@size_data_text_num,strcat@from
  2072  000688  C027  F006         	movff	send_data_direct@size_data_text_num+1,strcat@from+1
  2073  00068C  ECFC  F007         	call	_strcat	;wreg free
  2074  000690                     
  2075                           ;newmain.c: 1000: strcat(send_command_1, "\r\n");
  2076  000690  0E24               	movlw	low send_data_direct@send_command_1
  2077  000692  6E03               	movwf	strcat@to^0,c
  2078  000694  0E00               	movlw	high send_data_direct@send_command_1
  2079  000696  6E04               	movwf	(strcat@to+1)^0,c
  2080  000698  0E1B               	movlw	low (STR_30+11)
  2081  00069A  6E05               	movwf	strcat@from^0,c
  2082  00069C  0EBF               	movlw	high (STR_30+11)
  2083  00069E  6E06               	movwf	(strcat@from+1)^0,c
  2084  0006A0  ECFC  F007         	call	_strcat	;wreg free
  2085  0006A4                     l2658:
  2086                           
  2087                           ;newmain.c: 1001: };newmain.c: 1002: if(RF6==1){
  2088  0006A4  041E               	decf	send_data_direct@RF6^0,w,c
  2089  0006A6  101F               	iorwf	(send_data_direct@RF6+1)^0,w,c
  2090  0006A8  A4D8               	btfss	status,2,c
  2091  0006AA  EF59  F003         	goto	u1401
  2092  0006AE  EF5B  F003         	goto	u1400
  2093  0006B2                     u1401:
  2094  0006B2  EF8D  F003         	goto	l2670
  2095  0006B6                     u1400:
  2096  0006B6                     
  2097                           ;newmain.c: 1003: strcpy(send_command_1, "AT+CIPSEND=");
  2098  0006B6  0E24               	movlw	low send_data_direct@send_command_1
  2099  0006B8  6E03               	movwf	strcpy@to^0,c
  2100  0006BA  0E00               	movlw	high send_data_direct@send_command_1
  2101  0006BC  6E04               	movwf	(strcpy@to+1)^0,c
  2102  0006BE  0E5D               	movlw	low STR_28
  2103  0006C0  6E05               	movwf	strcpy@from^0,c
  2104  0006C2  0EBF               	movlw	high STR_28
  2105  0006C4  6E06               	movwf	(strcpy@from+1)^0,c
  2106  0006C6  EC2D  F009         	call	_strcpy	;wreg free
  2107  0006CA                     
  2108                           ;newmain.c: 1004: strcat(send_command_1,id_str);
  2109  0006CA  0E24               	movlw	low send_data_direct@send_command_1
  2110  0006CC  6E03               	movwf	strcat@to^0,c
  2111  0006CE  0E00               	movlw	high send_data_direct@send_command_1
  2112  0006D0  6E04               	movwf	(strcat@to+1)^0,c
  2113  0006D2  C020  F005         	movff	send_data_direct@id_str,strcat@from
  2114  0006D6  C021  F006         	movff	send_data_direct@id_str+1,strcat@from+1
  2115  0006DA  ECFC  F007         	call	_strcat	;wreg free
  2116  0006DE                     
  2117                           ;newmain.c: 1005: strcat(send_command_1,",");
  2118  0006DE  0E24               	movlw	low send_data_direct@send_command_1
  2119  0006E0  6E03               	movwf	strcat@to^0,c
  2120  0006E2  0E00               	movlw	high send_data_direct@send_command_1
  2121  0006E4  6E04               	movwf	(strcat@to+1)^0,c
  2122  0006E6  0EC9               	movlw	low (STR_32+4)
  2123  0006E8  6E05               	movwf	strcat@from^0,c
  2124  0006EA  0EBF               	movlw	high (STR_32+4)
  2125  0006EC  6E06               	movwf	(strcat@from+1)^0,c
  2126  0006EE  ECFC  F007         	call	_strcat	;wreg free
  2127  0006F2                     
  2128                           ;newmain.c: 1006: strcat(send_command_1,size_data_text_num);
  2129  0006F2  0E24               	movlw	low send_data_direct@send_command_1
  2130  0006F4  6E03               	movwf	strcat@to^0,c
  2131  0006F6  0E00               	movlw	high send_data_direct@send_command_1
  2132  0006F8  6E04               	movwf	(strcat@to+1)^0,c
  2133  0006FA  C026  F005         	movff	send_data_direct@size_data_text_num,strcat@from
  2134  0006FE  C027  F006         	movff	send_data_direct@size_data_text_num+1,strcat@from+1
  2135  000702  ECFC  F007         	call	_strcat	;wreg free
  2136  000706                     
  2137                           ;newmain.c: 1007: strcat(send_command_1, "\r\n");
  2138  000706  0E24               	movlw	low send_data_direct@send_command_1
  2139  000708  6E03               	movwf	strcat@to^0,c
  2140  00070A  0E00               	movlw	high send_data_direct@send_command_1
  2141  00070C  6E04               	movwf	(strcat@to+1)^0,c
  2142  00070E  0E1B               	movlw	low (STR_30+11)
  2143  000710  6E05               	movwf	strcat@from^0,c
  2144  000712  0EBF               	movlw	high (STR_30+11)
  2145  000714  6E06               	movwf	(strcat@from+1)^0,c
  2146  000716  ECFC  F007         	call	_strcat	;wreg free
  2147  00071A                     l2670:
  2148                           
  2149                           ;newmain.c: 1009: };newmain.c: 1011: uart_text_write(send_command_1);
  2150  00071A  0E24               	movlw	low send_data_direct@send_command_1
  2151  00071C  6E03               	movwf	uart_text_write@RF6^0,c
  2152  00071E  0E00               	movlw	high send_data_direct@send_command_1
  2153  000720  6E04               	movwf	(uart_text_write@RF6+1)^0,c
  2154  000722  ECC6  F006         	call	_uart_text_write	;wreg free
  2155  000726                     
  2156                           ;newmain.c: 1012: check_ok();
  2157  000726  EC55  F00A         	call	_check_ok	;wreg free
  2158  00072A                     
  2159                           ;newmain.c: 1013: reset_buff();
  2160  00072A  ECBB  F009         	call	_reset_buff	;wreg free
  2161  00072E                     
  2162                           ;newmain.c: 1014: _delay((unsigned long)((500)*(8000000/4000.0)));
  2163  00072E  0E06               	movlw	6
  2164  000730  6E23               	movwf	(??_send_data_direct+1)^0,c
  2165  000732  0E13               	movlw	19
  2166  000734  6E22               	movwf	??_send_data_direct^0,c
  2167  000736  0EAE               	movlw	174
  2168  000738                     u1817:
  2169  000738  2EE8               	decfsz	wreg,f,c
  2170  00073A  D7FE               	bra	u1817
  2171  00073C  2E22               	decfsz	??_send_data_direct^0,f,c
  2172  00073E  D7FC               	bra	u1817
  2173  000740  2E23               	decfsz	(??_send_data_direct+1)^0,f,c
  2174  000742  D7FA               	bra	u1817
  2175  000744                     
  2176                           ;newmain.c: 1015: uart_text_write(data_1);
  2177  000744  C01C  F003         	movff	send_data_direct@data_1,uart_text_write@RF6
  2178  000748  C01D  F004         	movff	send_data_direct@data_1+1,uart_text_write@RF6+1
  2179  00074C  ECC6  F006         	call	_uart_text_write	;wreg free
  2180  000750                     
  2181                           ;newmain.c: 1016: new_line();
  2182  000750  EC8A  F00A         	call	_new_line	;wreg free
  2183  000754                     
  2184                           ;newmain.c: 1017: _delay((unsigned long)((500)*(8000000/4000.0)));
  2185  000754  0E06               	movlw	6
  2186  000756  6E23               	movwf	(??_send_data_direct+1)^0,c
  2187  000758  0E13               	movlw	19
  2188  00075A  6E22               	movwf	??_send_data_direct^0,c
  2189  00075C  0EAE               	movlw	174
  2190  00075E                     u1827:
  2191  00075E  2EE8               	decfsz	wreg,f,c
  2192  000760  D7FE               	bra	u1827
  2193  000762  2E22               	decfsz	??_send_data_direct^0,f,c
  2194  000764  D7FC               	bra	u1827
  2195  000766  2E23               	decfsz	(??_send_data_direct+1)^0,f,c
  2196  000768  D7FA               	bra	u1827
  2197  00076A  0012               	return		;funcret
  2198  00076C                     __end_of_send_data_direct:
  2199                           	callstack 0
  2200                           
  2201 ;; *************** function _strcpy *****************
  2202 ;; Defined at:
  2203 ;;		line 8 in file "C:\Program Files\Microchip\xc8\v2.31\pic\sources\c90\common\strcpy.c"
  2204 ;; Parameters:    Size  Location     Type
  2205 ;;  to              2    2[COMRAM] PTR unsigned char 
  2206 ;;		 -> send_data_direct@send_command_1(0), close_command(20), send_command(20), 
  2207 ;;  from            2    4[COMRAM] PTR const unsigned char 
  2208 ;;		 -> STR_44(12), STR_42(12), STR_36(12), STR_34(13), 
  2209 ;;		 -> STR_28(12), 
  2210 ;; Auto vars:     Size  Location     Type
  2211 ;;  cp              2    6[COMRAM] PTR unsigned char 
  2212 ;;		 -> send_data_direct@send_command_1(0), close_command(20), send_command(20), 
  2213 ;; Return value:  Size  Location     Type
  2214 ;;                  2    2[COMRAM] PTR unsigned char 
  2215 ;; Registers used:
  2216 ;;		wreg, fsr2l, fsr2h, status,2, status,0, tblptrl, tblptrh, tblptru
  2217 ;; Tracked objects:
  2218 ;;		On entry : 0/0
  2219 ;;		On exit  : 0/0
  2220 ;;		Unchanged: 0/0
  2221 ;; Data sizes:     COMRAM   BANK0   BANK1   BANK2   BANK3   BANK4   BANK5   BANK6   BANK7   BANK8   BANK9  BANK10  BANK1
      +1  BANK12  BANK13  BANK14  BANK15
  2222 ;;      Params:         4       0       0       0       0       0       0       0       0       0       0       0       
      +0       0       0       0       0
  2223 ;;      Locals:         2       0       0       0       0       0       0       0       0       0       0       0       
      +0       0       0       0       0
  2224 ;;      Temps:          0       0       0       0       0       0       0       0       0       0       0       0       
      +0       0       0       0       0
  2225 ;;      Totals:         6       0       0       0       0       0       0       0       0       0       0       0       
      +0       0       0       0       0
  2226 ;;Total ram usage:        6 bytes
  2227 ;; Hardware stack levels used:    1
  2228 ;; Hardware stack levels required when called:    1
  2229 ;; This function calls:
  2230 ;;		Nothing
  2231 ;; This function is called by:
  2232 ;;		_send_data_direct
  2233 ;;		_send_adc_value
  2234 ;;		_check_webpage_request_2
  2235 ;;		_get_sending_command
  2236 ;; This function uses a non-reentrant model
  2237 ;;
  2238                           
  2239                           	psect	text3
  2240  00125A                     __ptext3:
  2241                           	callstack 0
  2242  00125A                     _strcpy:
  2243                           	callstack 27
  2244  00125A  C003  F007         	movff	strcpy@to,strcpy@cp
  2245  00125E  C004  F008         	movff	strcpy@to+1,strcpy@cp+1
  2246  001262  EF37  F009         	goto	l2574
  2247  001266                     l2572:
  2248  001266  4A07               	infsnz	strcpy@cp^0,f,c
  2249  001268  2A08               	incf	(strcpy@cp+1)^0,f,c
  2250  00126A  4A05               	infsnz	strcpy@from^0,f,c
  2251  00126C  2A06               	incf	(strcpy@from+1)^0,f,c
  2252  00126E                     l2574:
  2253  00126E  C005  FFF6         	movff	strcpy@from,tblptrl
  2254  001272  C006  FFF7         	movff	strcpy@from+1,tblptrh
  2255  001276                     	if	0	;tblptru may be non-zero
  2256  001276                     	endif
  2257  001276                     	if	0	;tblptru may be non-zero
  2258  001276                     	endif
  2259  001276  C007  FFD9         	movff	strcpy@cp,fsr2l
  2260  00127A  C008  FFDA         	movff	strcpy@cp+1,fsr2h
  2261  00127E  0008               	tblrd		*
  2262  001280  CFF5 FFDF          	movff	tablat,indf2
  2263  001284  50DF               	movf	indf2,w,c
  2264  001286  A4D8               	btfss	status,2,c
  2265  001288  EF48  F009         	goto	u1291
  2266  00128C  EF4A  F009         	goto	u1290
  2267  001290                     u1291:
  2268  001290  EF33  F009         	goto	l2572
  2269  001294                     u1290:
  2270  001294  0012               	return		;funcret
  2271  001296                     __end_of_strcpy:
  2272                           	callstack 0
  2273                           
  2274 ;; *************** function _strcat *****************
  2275 ;; Defined at:
  2276 ;;		line 8 in file "C:\Program Files\Microchip\xc8\v2.31\pic\sources\c90\common\strcat.c"
  2277 ;; Parameters:    Size  Location     Type
  2278 ;;  to              2    2[COMRAM] PTR unsigned char 
  2279 ;;		 -> send_data_direct@send_command_1(0), close_command(20), send_command(20), 
  2280 ;;  from            2    4[COMRAM] PTR const unsigned char 
  2281 ;;		 -> send_req_data@id_(8), STR_46(3), STR_45(2), STR_43(3), 
  2282 ;;		 -> send_data_when_ordered@connection_id_(6), STR_37(2), get_sending_command@_send_data_size(10), connection_id(6), 
  2283 ;;		 -> STR_29(3), size_data_text(6), 
  2284 ;; Auto vars:     Size  Location     Type
  2285 ;;  cp              2    6[COMRAM] PTR unsigned char 
  2286 ;;		 -> send_data_direct@send_command_1(0), close_command(20), send_command(20), 
  2287 ;; Return value:  Size  Location     Type
  2288 ;;                  2    2[COMRAM] PTR unsigned char 
  2289 ;; Registers used:
  2290 ;;		wreg, fsr0l, fsr0h, fsr2l, fsr2h, status,2, status,0, tblptrl, tblptrh, tblptru
  2291 ;; Tracked objects:
  2292 ;;		On entry : 0/0
  2293 ;;		On exit  : 0/0
  2294 ;;		Unchanged: 0/0
  2295 ;; Data sizes:     COMRAM   BANK0   BANK1   BANK2   BANK3   BANK4   BANK5   BANK6   BANK7   BANK8   BANK9  BANK10  BANK1
      +1  BANK12  BANK13  BANK14  BANK15
  2296 ;;      Params:         4       0       0       0       0       0       0       0       0       0       0       0       
      +0       0       0       0       0
  2297 ;;      Locals:         2       0       0       0       0       0       0       0       0       0       0       0       
      +0       0       0       0       0
  2298 ;;      Temps:          0       0       0       0       0       0       0       0       0       0       0       0       
      +0       0       0       0       0
  2299 ;;      Totals:         6       0       0       0       0       0       0       0       0       0       0       0       
      +0       0       0       0       0
  2300 ;;Total ram usage:        6 bytes
  2301 ;; Hardware stack levels used:    1
  2302 ;; Hardware stack levels required when called:    1
  2303 ;; This function calls:
  2304 ;;		Nothing
  2305 ;; This function is called by:
  2306 ;;		_send_data_direct
  2307 ;;		_send_adc_value
  2308 ;;		_check_webpage_request_2
  2309 ;;		_get_sending_command
  2310 ;; This function uses a non-reentrant model
  2311 ;;
  2312                           
  2313                           	psect	text4
  2314  000FF8                     __ptext4:
  2315                           	callstack 0
  2316  000FF8                     _strcat:
  2317                           	callstack 27
  2318  000FF8  C003  F007         	movff	strcat@to,strcat@cp
  2319  000FFC  C004  F008         	movff	strcat@to+1,strcat@cp+1
  2320  001000  EF04  F008         	goto	l2580
  2321  001004                     l2578:
  2322  001004  4A07               	infsnz	strcat@cp^0,f,c
  2323  001006  2A08               	incf	(strcat@cp+1)^0,f,c
  2324  001008                     l2580:
  2325  001008  C007  FFD9         	movff	strcat@cp,fsr2l
  2326  00100C  C008  FFDA         	movff	strcat@cp+1,fsr2h
  2327  001010  50DF               	movf	indf2,w,c
  2328  001012  A4D8               	btfss	status,2,c
  2329  001014  EF0E  F008         	goto	u1301
  2330  001018  EF10  F008         	goto	u1300
  2331  00101C                     u1301:
  2332  00101C  EF02  F008         	goto	l2578
  2333  001020                     u1300:
  2334  001020  EF16  F008         	goto	l2584
  2335  001024                     l2582:
  2336  001024  4A07               	infsnz	strcat@cp^0,f,c
  2337  001026  2A08               	incf	(strcat@cp+1)^0,f,c
  2338  001028  4A05               	infsnz	strcat@from^0,f,c
  2339  00102A  2A06               	incf	(strcat@from+1)^0,f,c
  2340  00102C                     l2584:
  2341  00102C  C005  FFF6         	movff	strcat@from,tblptrl
  2342  001030  C006  FFF7         	movff	strcat@from+1,tblptrh
  2343  001034  6AF8               	clrf	tblptru,c
  2344  001036  C007  FFD9         	movff	strcat@cp,fsr2l
  2345  00103A  C008  FFDA         	movff	strcat@cp+1,fsr2h
  2346  00103E  0E0F               	movlw	(high __ramtop+-1)
  2347  001040  64F7               	cpfsgt	tblptrh,c
  2348  001042  D003               	bra	u1317
  2349  001044  0008               	tblrd		*
  2350  001046  50F5               	movf	tablat,w,c
  2351  001048  D005               	bra	u1310
  2352  00104A                     u1317:
  2353  00104A  CFF6 FFE9          	movff	tblptrl,fsr0l
  2354  00104E  CFF7 FFEA          	movff	tblptrh,fsr0h
  2355  001052  50EF               	movf	indf0,w,c
  2356  001054                     u1310:
  2357  001054  6EDF               	movwf	indf2,c
  2358  001056  50DF               	movf	indf2,w,c
  2359  001058  A4D8               	btfss	status,2,c
  2360  00105A  EF31  F008         	goto	u1321
  2361  00105E  EF33  F008         	goto	u1320
  2362  001062                     u1321:
  2363  001062  EF12  F008         	goto	l2582
  2364  001066                     u1320:
  2365  001066  0012               	return		;funcret
  2366  001068                     __end_of_strcat:
  2367                           	callstack 0
  2368                           
  2369 ;; *************** function _sprintf *****************
  2370 ;; Defined at:
  2371 ;;		line 505 in file "C:\Program Files\Microchip\xc8\v2.31\pic\sources\c90\common\doprnt.c"
  2372 ;; Parameters:    Size  Location     Type
  2373 ;;  sp              2   14[COMRAM] PTR unsigned char 
  2374 ;;		 -> get_sending_command@_send_data_size(10), size_data_text(6), 
  2375 ;;  f               2   16[COMRAM] PTR const unsigned char 
  2376 ;;		 -> STR_41(3), STR_35(3), STR_27(3), 
  2377 ;; Auto vars:     Size  Location     Type
  2378 ;;  tmpval          4    0        struct .
  2379 ;;  cp              3    0        PTR const unsigned char 
  2380 ;;  val             2   23[COMRAM] unsigned int 
  2381 ;;  ap              2   21[COMRAM] PTR void [1]
  2382 ;;		 -> ?_sprintf(2), 
  2383 ;;  len             2    0        unsigned int 
  2384 ;;  c               1   26[COMRAM] unsigned char 
  2385 ;;  prec            1   25[COMRAM] char 
  2386 ;;  flag            1   20[COMRAM] unsigned char 
  2387 ;; Return value:  Size  Location     Type
  2388 ;;                  2   14[COMRAM] int 
  2389 ;; Registers used:
  2390 ;;		wreg, fsr2l, fsr2h, status,2, status,0, tblptrl, tblptrh, tblptru, prodl, prodh, cstack
  2391 ;; Tracked objects:
  2392 ;;		On entry : 0/0
  2393 ;;		On exit  : 0/0
  2394 ;;		Unchanged: 0/0
  2395 ;; Data sizes:     COMRAM   BANK0   BANK1   BANK2   BANK3   BANK4   BANK5   BANK6   BANK7   BANK8   BANK9  BANK10  BANK1
      +1  BANK12  BANK13  BANK14  BANK15
  2396 ;;      Params:         6       0       0       0       0       0       0       0       0       0       0       0       
      +0       0       0       0       0
  2397 ;;      Locals:         7       0       0       0       0       0       0       0       0       0       0       0       
      +0       0       0       0       0
  2398 ;;      Temps:          0       0       0       0       0       0       0       0       0       0       0       0       
      +0       0       0       0       0
  2399 ;;      Totals:        13       0       0       0       0       0       0       0       0       0       0       0       
      +0       0       0       0       0
  2400 ;;Total ram usage:       13 bytes
  2401 ;; Hardware stack levels used:    1
  2402 ;; Hardware stack levels required when called:    2
  2403 ;; This function calls:
  2404 ;;		___lwdiv
  2405 ;;		___lwmod
  2406 ;; This function is called by:
  2407 ;;		_send_data_direct
  2408 ;;		_send_adc_value
  2409 ;;		_get_sending_command
  2410 ;; This function uses a non-reentrant model
  2411 ;;
  2412                           
  2413                           	psect	text5
  2414  000200                     __ptext5:
  2415                           	callstack 0
  2416  000200                     _sprintf:
  2417                           	callstack 26
  2418  000200                     
  2419                           ;doprnt.c: 507: va_list ap;;doprnt.c: 512: char c;;doprnt.c: 521: signed char prec;;dopr
      +                          nt.c: 525: unsigned char flag;;doprnt.c: 540: union {;doprnt.c: 541: unsigned long vd;;d
      +                          oprnt.c: 542: double integ;;doprnt.c: 543: } tmpval;;doprnt.c: 545: unsigned int val;;do
      +                          prnt.c: 546: unsigned len;;doprnt.c: 547: const char * cp;;doprnt.c: 550: *ap = __va_sta
      +                          rt();
  2420  000200  0E13               	movlw	low (?_sprintf+4)
  2421  000202  6E16               	movwf	sprintf@ap^0,c
  2422  000204  0E00               	movlw	high (?_sprintf+4)
  2423  000206  6E17               	movwf	(sprintf@ap+1)^0,c
  2424                           
  2425                           ;doprnt.c: 553: while((c = *f++)) {
  2426  000208  EF9A  F001         	goto	l2564
  2427  00020C                     l2524:
  2428                           
  2429                           ;doprnt.c: 555: if(c != '%')
  2430  00020C  0E25               	movlw	37
  2431  00020E  181B               	xorwf	sprintf@c^0,w,c
  2432  000210  B4D8               	btfsc	status,2,c
  2433  000212  EF0D  F001         	goto	u1241
  2434  000216  EF0F  F001         	goto	u1240
  2435  00021A                     u1241:
  2436  00021A  EF19  F001         	goto	l2530
  2437  00021E                     u1240:
  2438  00021E                     
  2439                           ;doprnt.c: 557: {;doprnt.c: 558: ((*sp++ = (c)));
  2440  00021E  C00F  FFD9         	movff	sprintf@sp,fsr2l
  2441  000222  C010  FFDA         	movff	sprintf@sp+1,fsr2h
  2442  000226  C01B  FFDF         	movff	sprintf@c,indf2
  2443  00022A  4A0F               	infsnz	sprintf@sp^0,f,c
  2444  00022C  2A10               	incf	(sprintf@sp+1)^0,f,c
  2445                           
  2446                           ;doprnt.c: 559: continue;
  2447  00022E  EF9A  F001         	goto	l2564
  2448  000232                     l2530:
  2449                           
  2450                           ;doprnt.c: 560: };doprnt.c: 565: flag = 0;
  2451  000232  0E00               	movlw	0
  2452  000234  6E15               	movwf	sprintf@flag^0,c
  2453                           
  2454                           ;doprnt.c: 661: switch(c = *f++) {
  2455  000236  EF21  F001         	goto	l2536
  2456  00023A                     l2532:
  2457                           
  2458                           ;doprnt.c: 844: flag |= 0xC0;
  2459  00023A  0EC0               	movlw	192
  2460  00023C  1215               	iorwf	sprintf@flag^0,f,c
  2461                           
  2462                           ;doprnt.c: 845: break;
  2463  00023E  EF35  F001         	goto	l2538
  2464  000242                     l2536:
  2465  000242  C011  FFF6         	movff	sprintf@f,tblptrl
  2466  000246  C012  FFF7         	movff	sprintf@f+1,tblptrh
  2467  00024A  4A11               	infsnz	sprintf@f^0,f,c
  2468  00024C  2A12               	incf	(sprintf@f+1)^0,f,c
  2469  00024E                     	if	0	;tblptru may be non-zero
  2470  00024E                     	endif
  2471  00024E                     	if	0	;tblptru may be non-zero
  2472  00024E                     	endif
  2473  00024E  0008               	tblrd		*
  2474  000250  CFF5 F01B          	movff	tablat,sprintf@c
  2475  000254  501B               	movf	sprintf@c^0,w,c
  2476                           
  2477                           ; Switch size 1, requested type "simple"
  2478                           ; Number of cases is 2, Range of values is 0 to 117
  2479                           ; switch strategies available:
  2480                           ; Name         Instructions Cycles
  2481                           ; simple_byte            7     4 (average)
  2482                           ;	Chosen strategy is simple_byte
  2483  000256  0A00               	xorlw	0	; case 0
  2484  000258  B4D8               	btfsc	status,2,c
  2485  00025A  EFAB  F001         	goto	l2566
  2486  00025E  0A75               	xorlw	117	; case 117
  2487  000260  B4D8               	btfsc	status,2,c
  2488  000262  EF1D  F001         	goto	l2532
  2489  000266  EF9A  F001         	goto	l2564
  2490  00026A                     l2538:
  2491                           
  2492                           ;doprnt.c: 1299: {;doprnt.c: 1312: val = (*(unsigned *)__va_arg((*(unsigned **)ap), (uns
      +                          igned)0));
  2493  00026A  C016  FFD9         	movff	sprintf@ap,fsr2l
  2494  00026E  C017  FFDA         	movff	sprintf@ap+1,fsr2h
  2495  000272  CFDE F018          	movff	postinc2,sprintf@val
  2496  000276  CFDD F019          	movff	postdec2,sprintf@val+1
  2497  00027A  0E02               	movlw	2
  2498  00027C  2616               	addwf	sprintf@ap^0,f,c
  2499  00027E  0E00               	movlw	0
  2500  000280  2217               	addwfc	(sprintf@ap+1)^0,f,c
  2501  000282                     
  2502                           ;doprnt.c: 1313: };doprnt.c: 1331: for(c = 1 ; c != sizeof dpowers/sizeof dpowers[0] ; c
      +                          ++)
  2503  000282  0E01               	movlw	1
  2504  000284  6E1B               	movwf	sprintf@c^0,c
  2505  000286                     l2548:
  2506                           
  2507                           ;doprnt.c: 1332: if(val < dpowers[c])
  2508  000286  501B               	movf	sprintf@c^0,w,c
  2509  000288  0D02               	mullw	2
  2510  00028A  0EAA               	movlw	low _dpowers
  2511  00028C  24F3               	addwf	243,w,c
  2512  00028E  6EF6               	movwf	tblptrl,c
  2513  000290  0EBE               	movlw	high _dpowers
  2514  000292  20F4               	addwfc	244,w,c
  2515  000294  6EF7               	movwf	tblptrh,c
  2516  000296                     	if	0	;There are less than 3 active tblptr bytes
  2517  000296                     	endif
  2518  000296  0009               	tblrd		*+
  2519  000298  50F5               	movf	tablat,w,c
  2520  00029A  5C18               	subwf	sprintf@val^0,w,c
  2521  00029C  0009               	tblrd		*+
  2522  00029E  50F5               	movf	tablat,w,c
  2523  0002A0  5819               	subwfb	(sprintf@val+1)^0,w,c
  2524  0002A2  B0D8               	btfsc	status,0,c
  2525  0002A4  EF56  F001         	goto	u1251
  2526  0002A8  EF58  F001         	goto	u1250
  2527  0002AC                     u1251:
  2528  0002AC  EF5A  F001         	goto	l2552
  2529  0002B0                     u1250:
  2530  0002B0  EF64  F001         	goto	l507
  2531  0002B4                     l2552:
  2532  0002B4  2A1B               	incf	sprintf@c^0,f,c
  2533  0002B6  0E05               	movlw	5
  2534  0002B8  181B               	xorwf	sprintf@c^0,w,c
  2535  0002BA  A4D8               	btfss	status,2,c
  2536  0002BC  EF62  F001         	goto	u1261
  2537  0002C0  EF64  F001         	goto	u1260
  2538  0002C4                     u1261:
  2539  0002C4  EF43  F001         	goto	l2548
  2540  0002C8                     u1260:
  2541  0002C8                     l507:
  2542                           
  2543                           ;doprnt.c: 1448: {;doprnt.c: 1495: };doprnt.c: 1498: prec = c;
  2544  0002C8  C01B  F01A         	movff	sprintf@c,sprintf@prec
  2545                           
  2546                           ;doprnt.c: 1500: while(prec--) {
  2547  0002CC  EF91  F001         	goto	l2562
  2548  0002D0                     l2556:
  2549                           
  2550                           ;doprnt.c: 1504: {;doprnt.c: 1515: c = (val / dpowers[(unsigned char)prec]) % 10 + '0';
  2551  0002D0  501A               	movf	sprintf@prec^0,w,c
  2552  0002D2  0D02               	mullw	2
  2553  0002D4  0EAA               	movlw	low _dpowers
  2554  0002D6  24F3               	addwf	243,w,c
  2555  0002D8  6EF6               	movwf	tblptrl,c
  2556  0002DA  0EBE               	movlw	high _dpowers
  2557  0002DC  20F4               	addwfc	244,w,c
  2558  0002DE  6EF7               	movwf	tblptrh,c
  2559  0002E0                     	if	0	;There are less than 3 active tblptr bytes
  2560  0002E0                     	endif
  2561  0002E0  0009               	tblrd		*+
  2562  0002E2  CFF5 F005          	movff	tablat,___lwdiv@divisor
  2563  0002E6  000A               	tblrd		*-
  2564  0002E8  CFF5 F006          	movff	tablat,___lwdiv@divisor+1
  2565  0002EC  C018  F003         	movff	sprintf@val,___lwdiv@dividend
  2566  0002F0  C019  F004         	movff	sprintf@val+1,___lwdiv@dividend+1
  2567  0002F4  EC89  F007         	call	___lwdiv	;wreg free
  2568  0002F8  C003  F00A         	movff	?___lwdiv,___lwmod@dividend
  2569  0002FC  C004  F00B         	movff	?___lwdiv+1,___lwmod@dividend+1
  2570  000300  0E00               	movlw	0
  2571  000302  6E0D               	movwf	(___lwmod@divisor+1)^0,c
  2572  000304  0E0A               	movlw	10
  2573  000306  6E0C               	movwf	___lwmod@divisor^0,c
  2574  000308  EC34  F008         	call	___lwmod	;wreg free
  2575  00030C  500A               	movf	?___lwmod^0,w,c
  2576  00030E  0F30               	addlw	48
  2577  000310  6E1B               	movwf	sprintf@c^0,c
  2578  000312                     
  2579                           ;doprnt.c: 1549: };doprnt.c: 1550: ((*sp++ = (c)));
  2580  000312  C00F  FFD9         	movff	sprintf@sp,fsr2l
  2581  000316  C010  FFDA         	movff	sprintf@sp+1,fsr2h
  2582  00031A  C01B  FFDF         	movff	sprintf@c,indf2
  2583  00031E  4A0F               	infsnz	sprintf@sp^0,f,c
  2584  000320  2A10               	incf	(sprintf@sp+1)^0,f,c
  2585  000322                     l2562:
  2586  000322  061A               	decf	sprintf@prec^0,f,c
  2587  000324  281A               	incf	sprintf@prec^0,w,c
  2588  000326  A4D8               	btfss	status,2,c
  2589  000328  EF98  F001         	goto	u1271
  2590  00032C  EF9A  F001         	goto	u1270
  2591  000330                     u1271:
  2592  000330  EF68  F001         	goto	l2556
  2593  000334                     u1270:
  2594  000334                     l2564:
  2595  000334  C011  FFF6         	movff	sprintf@f,tblptrl
  2596  000338  C012  FFF7         	movff	sprintf@f+1,tblptrh
  2597  00033C  4A11               	infsnz	sprintf@f^0,f,c
  2598  00033E  2A12               	incf	(sprintf@f+1)^0,f,c
  2599  000340                     	if	0	;tblptru may be non-zero
  2600  000340                     	endif
  2601  000340                     	if	0	;tblptru may be non-zero
  2602  000340                     	endif
  2603  000340  0008               	tblrd		*
  2604  000342  CFF5 F01B          	movff	tablat,sprintf@c
  2605  000346  501B               	movf	sprintf@c^0,w,c
  2606  000348  A4D8               	btfss	status,2,c
  2607  00034A  EFA9  F001         	goto	u1281
  2608  00034E  EFAB  F001         	goto	u1280
  2609  000352                     u1281:
  2610  000352  EF06  F001         	goto	l2524
  2611  000356                     u1280:
  2612  000356                     l2566:
  2613                           
  2614                           ;doprnt.c: 1564: *sp = 0;
  2615  000356  C00F  FFD9         	movff	sprintf@sp,fsr2l
  2616  00035A  C010  FFDA         	movff	sprintf@sp+1,fsr2h
  2617  00035E  0E00               	movlw	0
  2618  000360  6EDF               	movwf	indf2,c
  2619  000362  0012               	return		;funcret
  2620  000364                     __end_of_sprintf:
  2621                           	callstack 0
  2622                           
  2623 ;; *************** function ___lwmod *****************
  2624 ;; Defined at:
  2625 ;;		line 7 in file "C:\Program Files\Microchip\xc8\v2.31\pic\sources\c90\common\lwmod.c"
  2626 ;; Parameters:    Size  Location     Type
  2627 ;;  dividend        2    9[COMRAM] unsigned int 
  2628 ;;  divisor         2   11[COMRAM] unsigned int 
  2629 ;; Auto vars:     Size  Location     Type
  2630 ;;  counter         1   13[COMRAM] unsigned char 
  2631 ;; Return value:  Size  Location     Type
  2632 ;;                  2    9[COMRAM] unsigned int 
  2633 ;; Registers used:
  2634 ;;		wreg, status,2, status,0
  2635 ;; Tracked objects:
  2636 ;;		On entry : 0/0
  2637 ;;		On exit  : 0/0
  2638 ;;		Unchanged: 0/0
  2639 ;; Data sizes:     COMRAM   BANK0   BANK1   BANK2   BANK3   BANK4   BANK5   BANK6   BANK7   BANK8   BANK9  BANK10  BANK1
      +1  BANK12  BANK13  BANK14  BANK15
  2640 ;;      Params:         4       0       0       0       0       0       0       0       0       0       0       0       
      +0       0       0       0       0
  2641 ;;      Locals:         1       0       0       0       0       0       0       0       0       0       0       0       
      +0       0       0       0       0
  2642 ;;      Temps:          0       0       0       0       0       0       0       0       0       0       0       0       
      +0       0       0       0       0
  2643 ;;      Totals:         5       0       0       0       0       0       0       0       0       0       0       0       
      +0       0       0       0       0
  2644 ;;Total ram usage:        5 bytes
  2645 ;; Hardware stack levels used:    1
  2646 ;; Hardware stack levels required when called:    1
  2647 ;; This function calls:
  2648 ;;		Nothing
  2649 ;; This function is called by:
  2650 ;;		_sprintf
  2651 ;; This function uses a non-reentrant model
  2652 ;;
  2653                           
  2654                           	psect	text6
  2655  001068                     __ptext6:
  2656                           	callstack 0
  2657  001068                     ___lwmod:
  2658                           	callstack 26
  2659  001068  500C               	movf	___lwmod@divisor^0,w,c
  2660  00106A  100D               	iorwf	(___lwmod@divisor+1)^0,w,c
  2661  00106C  B4D8               	btfsc	status,2,c
  2662  00106E  EF3B  F008         	goto	u1101
  2663  001072  EF3D  F008         	goto	u1100
  2664  001076                     u1101:
  2665  001076  EF61  F008         	goto	l1005
  2666  00107A                     u1100:
  2667  00107A  0E01               	movlw	1
  2668  00107C  6E0E               	movwf	___lwmod@counter^0,c
  2669  00107E  EF45  F008         	goto	l2440
  2670  001082                     l2438:
  2671  001082  90D8               	bcf	status,0,c
  2672  001084  360C               	rlcf	___lwmod@divisor^0,f,c
  2673  001086  360D               	rlcf	(___lwmod@divisor+1)^0,f,c
  2674  001088  2A0E               	incf	___lwmod@counter^0,f,c
  2675  00108A                     l2440:
  2676  00108A  AE0D               	btfss	(___lwmod@divisor+1)^0,7,c
  2677  00108C  EF4A  F008         	goto	u1111
  2678  001090  EF4C  F008         	goto	u1110
  2679  001094                     u1111:
  2680  001094  EF41  F008         	goto	l2438
  2681  001098                     u1110:
  2682  001098                     l2442:
  2683  001098  500C               	movf	___lwmod@divisor^0,w,c
  2684  00109A  5C0A               	subwf	___lwmod@dividend^0,w,c
  2685  00109C  500D               	movf	(___lwmod@divisor+1)^0,w,c
  2686  00109E  580B               	subwfb	(___lwmod@dividend+1)^0,w,c
  2687  0010A0  A0D8               	btfss	status,0,c
  2688  0010A2  EF55  F008         	goto	u1121
  2689  0010A6  EF57  F008         	goto	u1120
  2690  0010AA                     u1121:
  2691  0010AA  EF5B  F008         	goto	l2446
  2692  0010AE                     u1120:
  2693  0010AE  500C               	movf	___lwmod@divisor^0,w,c
  2694  0010B0  5E0A               	subwf	___lwmod@dividend^0,f,c
  2695  0010B2  500D               	movf	(___lwmod@divisor+1)^0,w,c
  2696  0010B4  5A0B               	subwfb	(___lwmod@dividend+1)^0,f,c
  2697  0010B6                     l2446:
  2698  0010B6  90D8               	bcf	status,0,c
  2699  0010B8  320D               	rrcf	(___lwmod@divisor+1)^0,f,c
  2700  0010BA  320C               	rrcf	___lwmod@divisor^0,f,c
  2701  0010BC  2E0E               	decfsz	___lwmod@counter^0,f,c
  2702  0010BE  EF4C  F008         	goto	l2442
  2703  0010C2                     l1005:
  2704  0010C2  C00A  F00A         	movff	___lwmod@dividend,?___lwmod
  2705  0010C6  C00B  F00B         	movff	___lwmod@dividend+1,?___lwmod+1
  2706  0010CA  0012               	return		;funcret
  2707  0010CC                     __end_of___lwmod:
  2708                           	callstack 0
  2709                           
  2710 ;; *************** function ___lwdiv *****************
  2711 ;; Defined at:
  2712 ;;		line 7 in file "C:\Program Files\Microchip\xc8\v2.31\pic\sources\c90\common\lwdiv.c"
  2713 ;; Parameters:    Size  Location     Type
  2714 ;;  dividend        2    2[COMRAM] unsigned int 
  2715 ;;  divisor         2    4[COMRAM] unsigned int 
  2716 ;; Auto vars:     Size  Location     Type
  2717 ;;  quotient        2    6[COMRAM] unsigned int 
  2718 ;;  counter         1    8[COMRAM] unsigned char 
  2719 ;; Return value:  Size  Location     Type
  2720 ;;                  2    2[COMRAM] unsigned int 
  2721 ;; Registers used:
  2722 ;;		wreg, status,2, status,0
  2723 ;; Tracked objects:
  2724 ;;		On entry : 0/0
  2725 ;;		On exit  : 0/0
  2726 ;;		Unchanged: 0/0
  2727 ;; Data sizes:     COMRAM   BANK0   BANK1   BANK2   BANK3   BANK4   BANK5   BANK6   BANK7   BANK8   BANK9  BANK10  BANK1
      +1  BANK12  BANK13  BANK14  BANK15
  2728 ;;      Params:         4       0       0       0       0       0       0       0       0       0       0       0       
      +0       0       0       0       0
  2729 ;;      Locals:         3       0       0       0       0       0       0       0       0       0       0       0       
      +0       0       0       0       0
  2730 ;;      Temps:          0       0       0       0       0       0       0       0       0       0       0       0       
      +0       0       0       0       0
  2731 ;;      Totals:         7       0       0       0       0       0       0       0       0       0       0       0       
      +0       0       0       0       0
  2732 ;;Total ram usage:        7 bytes
  2733 ;; Hardware stack levels used:    1
  2734 ;; Hardware stack levels required when called:    1
  2735 ;; This function calls:
  2736 ;;		Nothing
  2737 ;; This function is called by:
  2738 ;;		_sprintf
  2739 ;; This function uses a non-reentrant model
  2740 ;;
  2741                           
  2742                           	psect	text7
  2743  000F12                     __ptext7:
  2744                           	callstack 0
  2745  000F12                     ___lwdiv:
  2746                           	callstack 26
  2747  000F12  0E00               	movlw	0
  2748  000F14  6E08               	movwf	(___lwdiv@quotient+1)^0,c
  2749  000F16  0E00               	movlw	0
  2750  000F18  6E07               	movwf	___lwdiv@quotient^0,c
  2751  000F1A  5005               	movf	___lwdiv@divisor^0,w,c
  2752  000F1C  1006               	iorwf	(___lwdiv@divisor+1)^0,w,c
  2753  000F1E  B4D8               	btfsc	status,2,c
  2754  000F20  EF94  F007         	goto	u1071
  2755  000F24  EF96  F007         	goto	u1070
  2756  000F28                     u1071:
  2757  000F28  EFBE  F007         	goto	l995
  2758  000F2C                     u1070:
  2759  000F2C  0E01               	movlw	1
  2760  000F2E  6E09               	movwf	___lwdiv@counter^0,c
  2761  000F30  EF9E  F007         	goto	l2420
  2762  000F34                     l2418:
  2763  000F34  90D8               	bcf	status,0,c
  2764  000F36  3605               	rlcf	___lwdiv@divisor^0,f,c
  2765  000F38  3606               	rlcf	(___lwdiv@divisor+1)^0,f,c
  2766  000F3A  2A09               	incf	___lwdiv@counter^0,f,c
  2767  000F3C                     l2420:
  2768  000F3C  AE06               	btfss	(___lwdiv@divisor+1)^0,7,c
  2769  000F3E  EFA3  F007         	goto	u1081
  2770  000F42  EFA5  F007         	goto	u1080
  2771  000F46                     u1081:
  2772  000F46  EF9A  F007         	goto	l2418
  2773  000F4A                     u1080:
  2774  000F4A                     l2422:
  2775  000F4A  90D8               	bcf	status,0,c
  2776  000F4C  3607               	rlcf	___lwdiv@quotient^0,f,c
  2777  000F4E  3608               	rlcf	(___lwdiv@quotient+1)^0,f,c
  2778  000F50  5005               	movf	___lwdiv@divisor^0,w,c
  2779  000F52  5C03               	subwf	___lwdiv@dividend^0,w,c
  2780  000F54  5006               	movf	(___lwdiv@divisor+1)^0,w,c
  2781  000F56  5804               	subwfb	(___lwdiv@dividend+1)^0,w,c
  2782  000F58  A0D8               	btfss	status,0,c
  2783  000F5A  EFB1  F007         	goto	u1091
  2784  000F5E  EFB3  F007         	goto	u1090
  2785  000F62                     u1091:
  2786  000F62  EFB8  F007         	goto	l2430
  2787  000F66                     u1090:
  2788  000F66  5005               	movf	___lwdiv@divisor^0,w,c
  2789  000F68  5E03               	subwf	___lwdiv@dividend^0,f,c
  2790  000F6A  5006               	movf	(___lwdiv@divisor+1)^0,w,c
  2791  000F6C  5A04               	subwfb	(___lwdiv@dividend+1)^0,f,c
  2792  000F6E  8007               	bsf	___lwdiv@quotient^0,0,c
  2793  000F70                     l2430:
  2794  000F70  90D8               	bcf	status,0,c
  2795  000F72  3206               	rrcf	(___lwdiv@divisor+1)^0,f,c
  2796  000F74  3205               	rrcf	___lwdiv@divisor^0,f,c
  2797  000F76  2E09               	decfsz	___lwdiv@counter^0,f,c
  2798  000F78  EFA5  F007         	goto	l2422
  2799  000F7C                     l995:
  2800  000F7C  C007  F003         	movff	___lwdiv@quotient,?___lwdiv
  2801  000F80  C008  F004         	movff	___lwdiv@quotient+1,?___lwdiv+1
  2802  000F84  0012               	return		;funcret
  2803  000F86                     __end_of___lwdiv:
  2804                           	callstack 0
  2805                           
  2806 ;; *************** function _check_ok *****************
  2807 ;; Defined at:
  2808 ;;		line 964 in file "newmain.c"
  2809 ;; Parameters:    Size  Location     Type
  2810 ;;		None
  2811 ;; Auto vars:     Size  Location     Type
  2812 ;;		None
  2813 ;; Return value:  Size  Location     Type
  2814 ;;                  1    wreg      void 
  2815 ;; Registers used:
  2816 ;;		wreg, fsr0l, fsr0h, fsr2l, fsr2h, status,2, status,0, tblptrl, tblptrh, tblptru, cstack
  2817 ;; Tracked objects:
  2818 ;;		On entry : 0/0
  2819 ;;		On exit  : 0/0
  2820 ;;		Unchanged: 0/0
  2821 ;; Data sizes:     COMRAM   BANK0   BANK1   BANK2   BANK3   BANK4   BANK5   BANK6   BANK7   BANK8   BANK9  BANK10  BANK1
      +1  BANK12  BANK13  BANK14  BANK15
  2822 ;;      Params:         0       0       0       0       0       0       0       0       0       0       0       0       
      +0       0       0       0       0
  2823 ;;      Locals:         0       0       0       0       0       0       0       0       0       0       0       0       
      +0       0       0       0       0
  2824 ;;      Temps:          0       0       0       0       0       0       0       0       0       0       0       0       
      +0       0       0       0       0
  2825 ;;      Totals:         0       0       0       0       0       0       0       0       0       0       0       0       
      +0       0       0       0       0
  2826 ;;Total ram usage:        0 bytes
  2827 ;; Hardware stack levels used:    1
  2828 ;; Hardware stack levels required when called:    4
  2829 ;; This function calls:
  2830 ;;		_response_success
  2831 ;; This function is called by:
  2832 ;;		_send_data_direct
  2833 ;; This function uses a non-reentrant model
  2834 ;;
  2835                           
  2836                           	psect	text8
  2837  0014AA                     __ptext8:
  2838                           	callstack 0
  2839  0014AA                     _check_ok:
  2840                           	callstack 24
  2841  0014AA                     l2588:
  2842  0014AA  ECAA  F004         	call	_response_success	;wreg free
  2843  0014AE  06E8               	decf	wreg,f,c
  2844  0014B0  A4D8               	btfss	status,2,c
  2845  0014B2  EF5D  F00A         	goto	u1331
  2846  0014B6  EF5F  F00A         	goto	u1330
  2847  0014BA                     u1331:
  2848  0014BA  EF55  F00A         	goto	l2588
  2849  0014BE                     u1330:
  2850  0014BE  0012               	return		;funcret
  2851  0014C0                     __end_of_check_ok:
  2852                           	callstack 0
  2853                           
  2854 ;; *************** function _find_get_string *****************
  2855 ;; Defined at:
  2856 ;;		line 480 in file "newmain.c"
  2857 ;; Parameters:    Size  Location     Type
  2858 ;;  string          2   17[COMRAM] PTR unsigned char 
  2859 ;;		 -> rx_buff(500), 
  2860 ;;  from            2   19[COMRAM] PTR unsigned char 
  2861 ;;		 -> STR_47(6), STR_39(6), STR_32(6), STR_14(9), 
  2862 ;;		 -> STR_12(8), STR_10(8), STR_8(7), 
  2863 ;;  _from           1   21[COMRAM] unsigned char 
  2864 ;;  to              2   22[COMRAM] PTR unsigned char 
  2865 ;;		 -> STR_48(2), STR_40(2), STR_33(2), STR_15(2), 
  2866 ;;		 -> STR_13(2), STR_11(2), STR_9(2), 
  2867 ;;  _to             1   24[COMRAM] unsigned char 
  2868 ;;  get_text        2   25[COMRAM] PTR unsigned char 
  2869 ;;		 -> send_req_data@data_of_direction(10), send_data_when_ordered@connection_id_(6), connection_id(6), STAMAC(30), 
  2870 ;;		 -> STAIP(30), APMAC(30), APIP(30), 
  2871 ;; Auto vars:     Size  Location     Type
  2872 ;;  p1              2   30[COMRAM] PTR unsigned char 
  2873 ;;		 -> NULL(0), rx_buff(500), 
  2874 ;;  p2              2   27[COMRAM] PTR unsigned char 
  2875 ;;		 -> NULL(0), rx_buff(500), 
  2876 ;;  length          1   29[COMRAM] unsigned char 
  2877 ;; Return value:  Size  Location     Type
  2878 ;;                  1    wreg      void 
  2879 ;; Registers used:
  2880 ;;		wreg, fsr0l, fsr0h, fsr1l, fsr1h, fsr2l, fsr2h, status,2, status,0, tblptrl, tblptrh, tblptru, cstack
  2881 ;; Tracked objects:
  2882 ;;		On entry : 0/0
  2883 ;;		On exit  : 0/0
  2884 ;;		Unchanged: 0/0
  2885 ;; Data sizes:     COMRAM   BANK0   BANK1   BANK2   BANK3   BANK4   BANK5   BANK6   BANK7   BANK8   BANK9  BANK10  BANK1
      +1  BANK12  BANK13  BANK14  BANK15
  2886 ;;      Params:        10       0       0       0       0       0       0       0       0       0       0       0       
      +0       0       0       0       0
  2887 ;;      Locals:         5       0       0       0       0       0       0       0       0       0       0       0       
      +0       0       0       0       0
  2888 ;;      Temps:          0       0       0       0       0       0       0       0       0       0       0       0       
      +0       0       0       0       0
  2889 ;;      Totals:        15       0       0       0       0       0       0       0       0       0       0       0       
      +0       0       0       0       0
  2890 ;;Total ram usage:       15 bytes
  2891 ;; Hardware stack levels used:    1
  2892 ;; Hardware stack levels required when called:    3
  2893 ;; This function calls:
  2894 ;;		_strncpy
  2895 ;;		_strstr
  2896 ;; This function is called by:
  2897 ;;		_send_req_data
  2898 ;;		_Get_IP_MAC
  2899 ;;		_check_webpage_request_2
  2900 ;;		_send_data_when_ordered
  2901 ;; This function uses a non-reentrant model
  2902 ;;
  2903                           
  2904                           	psect	text9
  2905  000F86                     __ptext9:
  2906                           	callstack 0
  2907  000F86                     _find_get_string:
  2908                           	callstack 26
  2909  000F86                     
  2910                           ;newmain.c: 493: p1 = strstr(string, from) + _from;
  2911  000F86  C012  F00E         	movff	find_get_string@string,strstr@s1
  2912  000F8A  C013  F00F         	movff	find_get_string@string+1,strstr@s1+1
  2913  000F8E  C014  F010         	movff	find_get_string@from,strstr@s2
  2914  000F92  C015  F011         	movff	find_get_string@from+1,strstr@s2+1
  2915  000F96  ECDD  F005         	call	_strstr	;wreg free
  2916  000F9A  5016               	movf	find_get_string@_from^0,w,c
  2917  000F9C  240E               	addwf	?_strstr^0,w,c
  2918  000F9E  6E1F               	movwf	find_get_string@p1^0,c
  2919  000FA0  0E00               	movlw	0
  2920  000FA2  200F               	addwfc	(?_strstr+1)^0,w,c
  2921  000FA4  6E20               	movwf	(find_get_string@p1+1)^0,c
  2922  000FA6                     
  2923                           ;newmain.c: 502: p2 = strstr(p1, to) + _to;
  2924  000FA6  C01F  F00E         	movff	find_get_string@p1,strstr@s1
  2925  000FAA  C020  F00F         	movff	find_get_string@p1+1,strstr@s1+1
  2926  000FAE  C017  F010         	movff	find_get_string@to,strstr@s2
  2927  000FB2  C018  F011         	movff	find_get_string@to+1,strstr@s2+1
  2928  000FB6  ECDD  F005         	call	_strstr	;wreg free
  2929  000FBA  5019               	movf	find_get_string@_to^0,w,c
  2930  000FBC  240E               	addwf	?_strstr^0,w,c
  2931  000FBE  6E1C               	movwf	find_get_string@p2^0,c
  2932  000FC0  0E00               	movlw	0
  2933  000FC2  200F               	addwfc	(?_strstr+1)^0,w,c
  2934  000FC4  6E1D               	movwf	(find_get_string@p2+1)^0,c
  2935  000FC6                     
  2936                           ;newmain.c: 507: length = p2 - p1;
  2937  000FC6  501F               	movf	find_get_string@p1^0,w,c
  2938  000FC8  5C1C               	subwf	find_get_string@p2^0,w,c
  2939  000FCA  6E1E               	movwf	find_get_string@length^0,c
  2940  000FCC                     
  2941                           ;newmain.c: 513: strncpy(get_text, p1, length);
  2942  000FCC  C01A  F003         	movff	find_get_string@get_text,strncpy@to
  2943  000FD0  C01B  F004         	movff	find_get_string@get_text+1,strncpy@to+1
  2944  000FD4  C01F  F005         	movff	find_get_string@p1,strncpy@from
  2945  000FD8  C020  F006         	movff	find_get_string@p1+1,strncpy@from+1
  2946  000FDC  C01E  F007         	movff	find_get_string@length,strncpy@size
  2947  000FE0  6A08               	clrf	(strncpy@size+1)^0,c
  2948  000FE2  EC0A  F007         	call	_strncpy	;wreg free
  2949  000FE6                     
  2950                           ;newmain.c: 514: get_text[length] = '\0';
  2951  000FE6  501E               	movf	find_get_string@length^0,w,c
  2952  000FE8  241A               	addwf	find_get_string@get_text^0,w,c
  2953  000FEA  6ED9               	movwf	fsr2l,c
  2954  000FEC  0E00               	movlw	0
  2955  000FEE  201B               	addwfc	(find_get_string@get_text+1)^0,w,c
  2956  000FF0  6EDA               	movwf	fsr2h,c
  2957  000FF2  0E00               	movlw	0
  2958  000FF4  6EDF               	movwf	indf2,c
  2959  000FF6  0012               	return		;funcret
  2960  000FF8                     __end_of_find_get_string:
  2961                           	callstack 0
  2962                           
  2963 ;; *************** function _strstr *****************
  2964 ;; Defined at:
  2965 ;;		line 4 in file "C:\Program Files\Microchip\xc8\v2.31\pic\sources\c90\common\strstr.c"
  2966 ;; Parameters:    Size  Location     Type
  2967 ;;  s1              2   13[COMRAM] PTR const unsigned char 
  2968 ;;		 -> NULL(0), rx_buff(500), 
  2969 ;;  s2              2   15[COMRAM] PTR const unsigned char 
  2970 ;;		 -> STR_48(2), STR_47(6), STR_40(2), STR_39(6), 
  2971 ;;		 -> STR_33(2), STR_32(6), STR_15(2), STR_14(9), 
  2972 ;;		 -> STR_13(2), STR_12(8), STR_11(2), STR_10(8), 
  2973 ;;		 -> STR_9(2), STR_8(7), 
  2974 ;; Auto vars:     Size  Location     Type
  2975 ;;		None
  2976 ;; Return value:  Size  Location     Type
  2977 ;;                  2   13[COMRAM] PTR unsigned char 
  2978 ;; Registers used:
  2979 ;;		wreg, fsr0l, fsr0h, fsr2l, fsr2h, status,2, status,0, tblptrl, tblptrh, tblptru, cstack
  2980 ;; Tracked objects:
  2981 ;;		On entry : 0/0
  2982 ;;		On exit  : 0/0
  2983 ;;		Unchanged: 0/0
  2984 ;; Data sizes:     COMRAM   BANK0   BANK1   BANK2   BANK3   BANK4   BANK5   BANK6   BANK7   BANK8   BANK9  BANK10  BANK1
      +1  BANK12  BANK13  BANK14  BANK15
  2985 ;;      Params:         4       0       0       0       0       0       0       0       0       0       0       0       
      +0       0       0       0       0
  2986 ;;      Locals:         0       0       0       0       0       0       0       0       0       0       0       0       
      +0       0       0       0       0
  2987 ;;      Temps:          0       0       0       0       0       0       0       0       0       0       0       0       
      +0       0       0       0       0
  2988 ;;      Totals:         4       0       0       0       0       0       0       0       0       0       0       0       
      +0       0       0       0       0
  2989 ;;Total ram usage:        4 bytes
  2990 ;; Hardware stack levels used:    1
  2991 ;; Hardware stack levels required when called:    2
  2992 ;; This function calls:
  2993 ;;		_strchr
  2994 ;;		_strlen
  2995 ;;		_strncmp
  2996 ;; This function is called by:
  2997 ;;		_find_get_string
  2998 ;; This function uses a non-reentrant model
  2999 ;;
  3000                           
  3001                           	psect	text10
  3002  000BBA                     __ptext10:
  3003                           	callstack 0
  3004  000BBA                     _strstr:
  3005                           	callstack 26
  3006  000BBA  EF16  F006         	goto	l2498
  3007  000BBE                     l2490:
  3008  000BBE  C00E  F007         	movff	strstr@s1,strncmp@s1
  3009  000BC2  C00F  F008         	movff	strstr@s1+1,strncmp@s1+1
  3010  000BC6  C010  F009         	movff	strstr@s2,strncmp@s2
  3011  000BCA  C011  F00A         	movff	strstr@s2+1,strncmp@s2+1
  3012  000BCE  C010  F003         	movff	strstr@s2,strlen@s
  3013  000BD2  C011  F004         	movff	strstr@s2+1,strlen@s+1
  3014  000BD6  ECBB  F008         	call	_strlen	;wreg free
  3015  000BDA  C003  F00B         	movff	?_strlen,strncmp@len
  3016  000BDE  C004  F00C         	movff	?_strlen+1,strncmp@len+1
  3017  000BE2  EC30  F006         	call	_strncmp	;wreg free
  3018  000BE6  5007               	movf	?_strncmp^0,w,c
  3019  000BE8  1008               	iorwf	(?_strncmp+1)^0,w,c
  3020  000BEA  A4D8               	btfss	status,2,c
  3021  000BEC  EFFA  F005         	goto	u1181
  3022  000BF0  EFFC  F005         	goto	u1180
  3023  000BF4                     u1181:
  3024  000BF4  EF02  F006         	goto	l2496
  3025  000BF8                     u1180:
  3026  000BF8  C00E  F00E         	movff	strstr@s1,?_strstr
  3027  000BFC  C00F  F00F         	movff	strstr@s1+1,?_strstr+1
  3028  000C00  EF2F  F006         	goto	l1224
  3029  000C04                     l2496:
  3030  000C04  0E01               	movlw	1
  3031  000C06  240E               	addwf	strstr@s1^0,w,c
  3032  000C08  6E03               	movwf	strchr@ptr^0,c
  3033  000C0A  0E00               	movlw	0
  3034  000C0C  200F               	addwfc	(strstr@s1+1)^0,w,c
  3035  000C0E  6E04               	movwf	(strchr@ptr+1)^0,c
  3036  000C10  C010  FFF6         	movff	strstr@s2,tblptrl
  3037  000C14  C011  FFF7         	movff	strstr@s2+1,tblptrh
  3038  000C18                     	if	0	;tblptru may be non-zero
  3039  000C18                     	endif
  3040  000C18                     	if	0	;tblptru may be non-zero
  3041  000C18                     	endif
  3042  000C18  0008               	tblrd		*
  3043  000C1A  50F5               	movf	tablat,w,c
  3044  000C1C  6E05               	movwf	strchr@chr^0,c
  3045  000C1E  6A06               	clrf	(strchr@chr+1)^0,c
  3046  000C20  ECE2  F008         	call	_strchr	;wreg free
  3047  000C24  C003  F00E         	movff	?_strchr,strstr@s1
  3048  000C28  C004  F00F         	movff	?_strchr+1,strstr@s1+1
  3049  000C2C                     l2498:
  3050  000C2C  500E               	movf	strstr@s1^0,w,c
  3051  000C2E  100F               	iorwf	(strstr@s1+1)^0,w,c
  3052  000C30  B4D8               	btfsc	status,2,c
  3053  000C32  EF1D  F006         	goto	u1191
  3054  000C36  EF1F  F006         	goto	u1190
  3055  000C3A                     u1191:
  3056  000C3A  EF2B  F006         	goto	l2502
  3057  000C3E                     u1190:
  3058  000C3E  C00E  FFD9         	movff	strstr@s1,fsr2l
  3059  000C42  C00F  FFDA         	movff	strstr@s1+1,fsr2h
  3060  000C46  50DF               	movf	indf2,w,c
  3061  000C48  A4D8               	btfss	status,2,c
  3062  000C4A  EF29  F006         	goto	u1201
  3063  000C4E  EF2B  F006         	goto	u1200
  3064  000C52                     u1201:
  3065  000C52  EFDF  F005         	goto	l2490
  3066  000C56                     u1200:
  3067  000C56                     l2502:
  3068  000C56  0E00               	movlw	0
  3069  000C58  6E0E               	movwf	?_strstr^0,c
  3070  000C5A  0E00               	movlw	0
  3071  000C5C  6E0F               	movwf	(?_strstr+1)^0,c
  3072  000C5E                     l1224:
  3073  000C5E  0012               	return		;funcret
  3074  000C60                     __end_of_strstr:
  3075                           	callstack 0
  3076                           
  3077 ;; *************** function _strncmp *****************
  3078 ;; Defined at:
  3079 ;;		line 4 in file "C:\Program Files\Microchip\xc8\v2.31\pic\sources\c90\common\strncmp.c"
  3080 ;; Parameters:    Size  Location     Type
  3081 ;;  s1              2    6[COMRAM] PTR const unsigned char 
  3082 ;;		 -> NULL(0), rx_buff(500), 
  3083 ;;  s2              2    8[COMRAM] PTR const unsigned char 
  3084 ;;		 -> STR_48(2), STR_47(6), STR_40(2), STR_39(6), 
  3085 ;;		 -> STR_33(2), STR_32(6), STR_15(2), STR_14(9), 
  3086 ;;		 -> STR_13(2), STR_12(8), STR_11(2), STR_10(8), 
  3087 ;;		 -> STR_9(2), STR_8(7), 
  3088 ;;  len             2   10[COMRAM] unsigned int 
  3089 ;; Auto vars:     Size  Location     Type
  3090 ;;		None
  3091 ;; Return value:  Size  Location     Type
  3092 ;;                  2    6[COMRAM] int 
  3093 ;; Registers used:
  3094 ;;		wreg, fsr2l, fsr2h, status,2, status,0, tblptrl, tblptrh, tblptru
  3095 ;; Tracked objects:
  3096 ;;		On entry : 0/0
  3097 ;;		On exit  : 0/0
  3098 ;;		Unchanged: 0/0
  3099 ;; Data sizes:     COMRAM   BANK0   BANK1   BANK2   BANK3   BANK4   BANK5   BANK6   BANK7   BANK8   BANK9  BANK10  BANK1
      +1  BANK12  BANK13  BANK14  BANK15
  3100 ;;      Params:         6       0       0       0       0       0       0       0       0       0       0       0       
      +0       0       0       0       0
  3101 ;;      Locals:         0       0       0       0       0       0       0       0       0       0       0       0       
      +0       0       0       0       0
  3102 ;;      Temps:          1       0       0       0       0       0       0       0       0       0       0       0       
      +0       0       0       0       0
  3103 ;;      Totals:         7       0       0       0       0       0       0       0       0       0       0       0       
      +0       0       0       0       0
  3104 ;;Total ram usage:        7 bytes
  3105 ;; Hardware stack levels used:    1
  3106 ;; Hardware stack levels required when called:    1
  3107 ;; This function calls:
  3108 ;;		Nothing
  3109 ;; This function is called by:
  3110 ;;		_strstr
  3111 ;; This function uses a non-reentrant model
  3112 ;;
  3113                           
  3114                           	psect	text11
  3115  000C60                     __ptext11:
  3116                           	callstack 0
  3117  000C60                     _strncmp:
  3118                           	callstack 26
  3119  000C60  EF69  F006         	goto	l2462
  3120  000C64                     l2452:
  3121  000C64  C007  FFD9         	movff	strncmp@s1,fsr2l
  3122  000C68  C008  FFDA         	movff	strncmp@s1+1,fsr2h
  3123  000C6C  50DF               	movf	indf2,w,c
  3124  000C6E  B4D8               	btfsc	status,2,c
  3125  000C70  EF3C  F006         	goto	u1131
  3126  000C74  EF3E  F006         	goto	u1130
  3127  000C78                     u1131:
  3128  000C78  EF52  F006         	goto	l2456
  3129  000C7C                     u1130:
  3130  000C7C  C007  FFD9         	movff	strncmp@s1,fsr2l
  3131  000C80  C008  FFDA         	movff	strncmp@s1+1,fsr2h
  3132  000C84  50DF               	movf	indf2,w,c
  3133  000C86  6E0D               	movwf	??_strncmp^0,c
  3134  000C88  C009  FFF6         	movff	strncmp@s2,tblptrl
  3135  000C8C  C00A  FFF7         	movff	strncmp@s2+1,tblptrh
  3136  000C90                     	if	0	;tblptru may be non-zero
  3137  000C90                     	endif
  3138  000C90                     	if	0	;tblptru may be non-zero
  3139  000C90                     	endif
  3140  000C90  0008               	tblrd		*
  3141  000C92  50F5               	movf	tablat,w,c
  3142  000C94  180D               	xorwf	??_strncmp^0,w,c
  3143  000C96  B4D8               	btfsc	status,2,c
  3144  000C98  EF50  F006         	goto	u1141
  3145  000C9C  EF52  F006         	goto	u1140
  3146  000CA0                     u1141:
  3147  000CA0  EF65  F006         	goto	l2460
  3148  000CA4                     u1140:
  3149  000CA4                     l2456:
  3150  000CA4  C007  FFD9         	movff	strncmp@s1,fsr2l
  3151  000CA8  C008  FFDA         	movff	strncmp@s1+1,fsr2h
  3152  000CAC  50DF               	movf	indf2,w,c
  3153  000CAE  6E0D               	movwf	??_strncmp^0,c
  3154  000CB0  C009  FFF6         	movff	strncmp@s2,tblptrl
  3155  000CB4  C00A  FFF7         	movff	strncmp@s2+1,tblptrh
  3156  000CB8                     	if	0	;tblptru may be non-zero
  3157  000CB8                     	endif
  3158  000CB8                     	if	0	;tblptru may be non-zero
  3159  000CB8                     	endif
  3160  000CB8  0008               	tblrd		*
  3161  000CBA  50F5               	movf	tablat,w,c
  3162  000CBC  5C0D               	subwf	??_strncmp^0,w,c
  3163  000CBE  6E07               	movwf	?_strncmp^0,c
  3164  000CC0  6A08               	clrf	(?_strncmp+1)^0,c
  3165  000CC2  A0D8               	btfss	status,0,c
  3166  000CC4  0608               	decf	(?_strncmp+1)^0,f,c
  3167  000CC6  EF7A  F006         	goto	l1241
  3168  000CCA                     l2460:
  3169  000CCA  4A07               	infsnz	strncmp@s1^0,f,c
  3170  000CCC  2A08               	incf	(strncmp@s1+1)^0,f,c
  3171  000CCE  4A09               	infsnz	strncmp@s2^0,f,c
  3172  000CD0  2A0A               	incf	(strncmp@s2+1)^0,f,c
  3173  000CD2                     l2462:
  3174  000CD2  060B               	decf	strncmp@len^0,f,c
  3175  000CD4  A0D8               	btfss	status,0,c
  3176  000CD6  060C               	decf	(strncmp@len+1)^0,f,c
  3177  000CD8  280B               	incf	strncmp@len^0,w,c
  3178  000CDA  E106               	bnz	u1151
  3179  000CDC  280C               	incf	(strncmp@len+1)^0,w,c
  3180  000CDE  A4D8               	btfss	status,2,c
  3181  000CE0  EF74  F006         	goto	u1151
  3182  000CE4  EF76  F006         	goto	u1150
  3183  000CE8                     u1151:
  3184  000CE8  EF32  F006         	goto	l2452
  3185  000CEC                     u1150:
  3186  000CEC  0E00               	movlw	0
  3187  000CEE  6E08               	movwf	(?_strncmp+1)^0,c
  3188  000CF0  0E00               	movlw	0
  3189  000CF2  6E07               	movwf	?_strncmp^0,c
  3190  000CF4                     l1241:
  3191  000CF4  0012               	return		;funcret
  3192  000CF6                     __end_of_strncmp:
  3193                           	callstack 0
  3194                           
  3195 ;; *************** function _strchr *****************
  3196 ;; Defined at:
  3197 ;;		line 4 in file "C:\Program Files\Microchip\xc8\v2.31\pic\sources\c90\common\strchr.c"
  3198 ;; Parameters:    Size  Location     Type
  3199 ;;  ptr             2    2[COMRAM] PTR const unsigned char 
  3200 ;;		 -> NULL(0), rx_buff(500), 
  3201 ;;  chr             2    4[COMRAM] int 
  3202 ;; Auto vars:     Size  Location     Type
  3203 ;;		None
  3204 ;; Return value:  Size  Location     Type
  3205 ;;                  2    2[COMRAM] PTR unsigned char 
  3206 ;; Registers used:
  3207 ;;		wreg, fsr2l, fsr2h, status,2, status,0
  3208 ;; Tracked objects:
  3209 ;;		On entry : 0/0
  3210 ;;		On exit  : 0/0
  3211 ;;		Unchanged: 0/0
  3212 ;; Data sizes:     COMRAM   BANK0   BANK1   BANK2   BANK3   BANK4   BANK5   BANK6   BANK7   BANK8   BANK9  BANK10  BANK1
      +1  BANK12  BANK13  BANK14  BANK15
  3213 ;;      Params:         4       0       0       0       0       0       0       0       0       0       0       0       
      +0       0       0       0       0
  3214 ;;      Locals:         0       0       0       0       0       0       0       0       0       0       0       0       
      +0       0       0       0       0
  3215 ;;      Temps:          1       0       0       0       0       0       0       0       0       0       0       0       
      +0       0       0       0       0
  3216 ;;      Totals:         5       0       0       0       0       0       0       0       0       0       0       0       
      +0       0       0       0       0
  3217 ;;Total ram usage:        5 bytes
  3218 ;; Hardware stack levels used:    1
  3219 ;; Hardware stack levels required when called:    1
  3220 ;; This function calls:
  3221 ;;		Nothing
  3222 ;; This function is called by:
  3223 ;;		_strstr
  3224 ;; This function uses a non-reentrant model
  3225 ;;
  3226                           
  3227                           	psect	text12
  3228  0011C4                     __ptext12:
  3229                           	callstack 0
  3230  0011C4                     _strchr:
  3231                           	callstack 26
  3232  0011C4                     l1230:
  3233  0011C4  C003  FFD9         	movff	strchr@ptr,fsr2l
  3234  0011C8  C004  FFDA         	movff	strchr@ptr+1,fsr2h
  3235  0011CC  5005               	movf	strchr@chr^0,w,c
  3236  0011CE  18DE               	xorwf	postinc2,w,c
  3237  0011D0  A4D8               	btfss	status,2,c
  3238  0011D2  EFED  F008         	goto	u1161
  3239  0011D6  EFEF  F008         	goto	u1160
  3240  0011DA                     u1161:
  3241  0011DA  EFF5  F008         	goto	l2474
  3242  0011DE                     u1160:
  3243  0011DE  C003  F003         	movff	strchr@ptr,?_strchr
  3244  0011E2  C004  F004         	movff	strchr@ptr+1,?_strchr+1
  3245  0011E6  EF07  F009         	goto	l1232
  3246  0011EA                     l2474:
  3247  0011EA  C003  FFD9         	movff	strchr@ptr,fsr2l
  3248  0011EE  C004  FFDA         	movff	strchr@ptr+1,fsr2h
  3249  0011F2  4A03               	infsnz	strchr@ptr^0,f,c
  3250  0011F4  2A04               	incf	(strchr@ptr+1)^0,f,c
  3251  0011F6  50DF               	movf	indf2,w,c
  3252  0011F8  A4D8               	btfss	status,2,c
  3253  0011FA  EF01  F009         	goto	u1171
  3254  0011FE  EF03  F009         	goto	u1170
  3255  001202                     u1171:
  3256  001202  EFE2  F008         	goto	l1230
  3257  001206                     u1170:
  3258  001206  0E00               	movlw	0
  3259  001208  6E03               	movwf	?_strchr^0,c
  3260  00120A  0E00               	movlw	0
  3261  00120C  6E04               	movwf	(?_strchr+1)^0,c
  3262  00120E                     l1232:
  3263  00120E  0012               	return		;funcret
  3264  001210                     __end_of_strchr:
  3265                           	callstack 0
  3266                           
  3267 ;; *************** function _strncpy *****************
  3268 ;; Defined at:
  3269 ;;		line 8 in file "C:\Program Files\Microchip\xc8\v2.31\pic\sources\c90\common\strncpy.c"
  3270 ;; Parameters:    Size  Location     Type
  3271 ;;  to              2    2[COMRAM] PTR unsigned char 
  3272 ;;		 -> send_req_data@data_of_direction(10), send_data_when_ordered@connection_id_(6), connection_id(6), STAMAC(30), 
  3273 ;;		 -> STAIP(30), APMAC(30), APIP(30), 
  3274 ;;  from            2    4[COMRAM] PTR const unsigned char 
  3275 ;;		 -> NULL(0), rx_buff(500), 
  3276 ;;  size            2    6[COMRAM] unsigned int 
  3277 ;; Auto vars:     Size  Location     Type
  3278 ;;  cp              2    8[COMRAM] PTR unsigned char 
  3279 ;;		 -> send_req_data@data_of_direction(10), send_data_when_ordered@connection_id_(6), connection_id(6), STAMAC(30), 
  3280 ;;		 -> STAIP(30), APMAC(30), APIP(30), 
  3281 ;; Return value:  Size  Location     Type
  3282 ;;                  2    2[COMRAM] PTR unsigned char 
  3283 ;; Registers used:
  3284 ;;		wreg, fsr1l, fsr1h, fsr2l, fsr2h, status,2, status,0
  3285 ;; Tracked objects:
  3286 ;;		On entry : 0/0
  3287 ;;		On exit  : 0/0
  3288 ;;		Unchanged: 0/0
  3289 ;; Data sizes:     COMRAM   BANK0   BANK1   BANK2   BANK3   BANK4   BANK5   BANK6   BANK7   BANK8   BANK9  BANK10  BANK1
      +1  BANK12  BANK13  BANK14  BANK15
  3290 ;;      Params:         6       0       0       0       0       0       0       0       0       0       0       0       
      +0       0       0       0       0
  3291 ;;      Locals:         2       0       0       0       0       0       0       0       0       0       0       0       
      +0       0       0       0       0
  3292 ;;      Temps:          0       0       0       0       0       0       0       0       0       0       0       0       
      +0       0       0       0       0
  3293 ;;      Totals:         8       0       0       0       0       0       0       0       0       0       0       0       
      +0       0       0       0       0
  3294 ;;Total ram usage:        8 bytes
  3295 ;; Hardware stack levels used:    1
  3296 ;; Hardware stack levels required when called:    1
  3297 ;; This function calls:
  3298 ;;		Nothing
  3299 ;; This function is called by:
  3300 ;;		_find_get_string
  3301 ;; This function uses a non-reentrant model
  3302 ;;
  3303                           
  3304                           	psect	text13
  3305  000E14                     __ptext13:
  3306                           	callstack 0
  3307  000E14                     _strncpy:
  3308                           	callstack 27
  3309  000E14  C003  F009         	movff	strncpy@to,strncpy@cp
  3310  000E18  C004  F00A         	movff	strncpy@to+1,strncpy@cp+1
  3311  000E1C  EF2B  F007         	goto	l2514
  3312  000E20                     l2508:
  3313  000E20  0607               	decf	strncpy@size^0,f,c
  3314  000E22  A0D8               	btfss	status,0,c
  3315  000E24  0608               	decf	(strncpy@size+1)^0,f,c
  3316  000E26  C005  FFD9         	movff	strncpy@from,fsr2l
  3317  000E2A  C006  FFDA         	movff	strncpy@from+1,fsr2h
  3318  000E2E  4A05               	infsnz	strncpy@from^0,f,c
  3319  000E30  2A06               	incf	(strncpy@from+1)^0,f,c
  3320  000E32  C009  FFE1         	movff	strncpy@cp,fsr1l
  3321  000E36  C00A  FFE2         	movff	strncpy@cp+1,fsr1h
  3322  000E3A  4A09               	infsnz	strncpy@cp^0,f,c
  3323  000E3C  2A0A               	incf	(strncpy@cp+1)^0,f,c
  3324  000E3E  CFDF FFE7          	movff	indf2,indf1
  3325  000E42  50E7               	movf	indf1,w,c
  3326  000E44  A4D8               	btfss	status,2,c
  3327  000E46  EF27  F007         	goto	u1211
  3328  000E4A  EF29  F007         	goto	u1210
  3329  000E4E                     u1211:
  3330  000E4E  EF2B  F007         	goto	l2514
  3331  000E52                     u1210:
  3332  000E52  EF3E  F007         	goto	l2520
  3333  000E56                     l2514:
  3334  000E56  5007               	movf	strncpy@size^0,w,c
  3335  000E58  1008               	iorwf	(strncpy@size+1)^0,w,c
  3336  000E5A  A4D8               	btfss	status,2,c
  3337  000E5C  EF32  F007         	goto	u1221
  3338  000E60  EF34  F007         	goto	u1220
  3339  000E64                     u1221:
  3340  000E64  EF10  F007         	goto	l2508
  3341  000E68                     u1220:
  3342  000E68  EF3E  F007         	goto	l2520
  3343  000E6C                     l2516:
  3344  000E6C  C009  FFD9         	movff	strncpy@cp,fsr2l
  3345  000E70  C00A  FFDA         	movff	strncpy@cp+1,fsr2h
  3346  000E74  0E00               	movlw	0
  3347  000E76  6EDF               	movwf	indf2,c
  3348  000E78  4A09               	infsnz	strncpy@cp^0,f,c
  3349  000E7A  2A0A               	incf	(strncpy@cp+1)^0,f,c
  3350  000E7C                     l2520:
  3351  000E7C  0607               	decf	strncpy@size^0,f,c
  3352  000E7E  A0D8               	btfss	status,0,c
  3353  000E80  0608               	decf	(strncpy@size+1)^0,f,c
  3354  000E82  2807               	incf	strncpy@size^0,w,c
  3355  000E84  E106               	bnz	u1231
  3356  000E86  2808               	incf	(strncpy@size+1)^0,w,c
  3357  000E88  A4D8               	btfss	status,2,c
  3358  000E8A  EF49  F007         	goto	u1231
  3359  000E8E  EF4B  F007         	goto	u1230
  3360  000E92                     u1231:
  3361  000E92  EF36  F007         	goto	l2516
  3362  000E96                     u1230:
  3363  000E96  0012               	return		;funcret
  3364  000E98                     __end_of_strncpy:
  3365                           	callstack 0
  3366                           
  3367 ;; *************** function _do_move *****************
  3368 ;; Defined at:
  3369 ;;		line 1083 in file "newmain.c"
  3370 ;; Parameters:    Size  Location     Type
  3371 ;;  dir             2    2[COMRAM] int 
  3372 ;; Auto vars:     Size  Location     Type
  3373 ;;  i               2    6[COMRAM] int 
  3374 ;; Return value:  Size  Location     Type
  3375 ;;                  1    wreg      void 
  3376 ;; Registers used:
  3377 ;;		wreg, status,2, status,0
  3378 ;; Tracked objects:
  3379 ;;		On entry : 0/0
  3380 ;;		On exit  : 0/0
  3381 ;;		Unchanged: 0/0
  3382 ;; Data sizes:     COMRAM   BANK0   BANK1   BANK2   BANK3   BANK4   BANK5   BANK6   BANK7   BANK8   BANK9  BANK10  BANK1
      +1  BANK12  BANK13  BANK14  BANK15
  3383 ;;      Params:         2       0       0       0       0       0       0       0       0       0       0       0       
      +0       0       0       0       0
  3384 ;;      Locals:         2       0       0       0       0       0       0       0       0       0       0       0       
      +0       0       0       0       0
  3385 ;;      Temps:          2       0       0       0       0       0       0       0       0       0       0       0       
      +0       0       0       0       0
  3386 ;;      Totals:         6       0       0       0       0       0       0       0       0       0       0       0       
      +0       0       0       0       0
  3387 ;;Total ram usage:        6 bytes
  3388 ;; Hardware stack levels used:    1
  3389 ;; Hardware stack levels required when called:    1
  3390 ;; This function calls:
  3391 ;;		Nothing
  3392 ;; This function is called by:
  3393 ;;		_main
  3394 ;; This function uses a non-reentrant model
  3395 ;;
  3396                           
  3397                           	psect	text14
  3398  00009A                     __ptext14:
  3399                           	callstack 0
  3400  00009A                     _do_move:
  3401                           	callstack 29
  3402  00009A                     
  3403                           ;newmain.c: 1085: int i;;newmain.c: 1086: i=0;
  3404  00009A  0E00               	movlw	0
  3405  00009C  6E08               	movwf	(do_move@i+1)^0,c
  3406  00009E  0E00               	movlw	0
  3407  0000A0  6E07               	movwf	do_move@i^0,c
  3408                           
  3409                           ;newmain.c: 1087: switch(dir){
  3410  0000A2  EFDD  F000         	goto	l2846
  3411  0000A6                     l409:
  3412                           
  3413                           ;newmain.c: 1089: RE7=1;
  3414  0000A6  8E84               	bsf	3972,7,c	;volatile
  3415                           
  3416                           ;newmain.c: 1090: RH7=1;
  3417  0000A8  8E87               	bsf	3975,7,c	;volatile
  3418                           
  3419                           ;newmain.c: 1091: while(i>200){
  3420  0000AA  EF65  F000         	goto	l2796
  3421  0000AE                     l2782:
  3422                           
  3423                           ;newmain.c: 1092: i++;
  3424  0000AE  4A07               	infsnz	do_move@i^0,f,c
  3425  0000B0  2A08               	incf	(do_move@i+1)^0,f,c
  3426  0000B2                     
  3427                           ;newmain.c: 1093: RE5=1;
  3428  0000B2  8A84               	bsf	3972,5,c	;volatile
  3429  0000B4                     
  3430                           ;newmain.c: 1094: RH5=1;
  3431  0000B4  8A87               	bsf	3975,5,c	;volatile
  3432  0000B6                     
  3433                           ;newmain.c: 1095: _delay((unsigned long)((500)*(8000000/4000000.0)));
  3434  0000B6  0EC8               	movlw	200
  3435  0000B8                     u1837:
  3436  0000B8  D000               	nop2	
  3437  0000BA  2EE8               	decfsz	wreg,f,c
  3438  0000BC  D7FD               	bra	u1837
  3439  0000BE                     
  3440                           ;newmain.c: 1096: RE5=0;
  3441  0000BE  9A84               	bcf	3972,5,c	;volatile
  3442  0000C0                     
  3443                           ;newmain.c: 1097: RH5=0;
  3444  0000C0  9A87               	bcf	3975,5,c	;volatile
  3445  0000C2                     
  3446                           ;newmain.c: 1098: _delay((unsigned long)((500)*(8000000/4000000.0)));
  3447  0000C2  0EC8               	movlw	200
  3448  0000C4                     u1847:
  3449  0000C4  D000               	nop2	
  3450  0000C6  2EE8               	decfsz	wreg,f,c
  3451  0000C8  D7FD               	bra	u1847
  3452  0000CA                     l2796:
  3453  0000CA  BE08               	btfsc	(do_move@i+1)^0,7,c
  3454  0000CC  EF73  F000         	goto	u1500
  3455  0000D0  5008               	movf	(do_move@i+1)^0,w,c
  3456  0000D2  E107               	bnz	u1501
  3457  0000D4  0EC9               	movlw	201
  3458  0000D6  5C07               	subwf	do_move@i^0,w,c
  3459  0000D8  B0D8               	btfsc	status,0,c
  3460  0000DA  EF71  F000         	goto	u1501
  3461  0000DE  EF73  F000         	goto	u1500
  3462  0000E2                     u1501:
  3463  0000E2  EF57  F000         	goto	l2782
  3464  0000E6                     u1500:
  3465  0000E6                     
  3466                           ;newmain.c: 1100: };newmain.c: 1101: i=0;
  3467  0000E6  0E00               	movlw	0
  3468  0000E8  6E08               	movwf	(do_move@i+1)^0,c
  3469  0000EA  0E00               	movlw	0
  3470  0000EC  6E07               	movwf	do_move@i^0,c
  3471  0000EE                     l2800:
  3472                           
  3473                           ;newmain.c: 1104: RE7=0;
  3474  0000EE  9E84               	bcf	3972,7,c	;volatile
  3475  0000F0                     
  3476                           ;newmain.c: 1105: RH7=0;
  3477  0000F0  9E87               	bcf	3975,7,c	;volatile
  3478                           
  3479                           ;newmain.c: 1107: while(i>200){
  3480  0000F2  EF89  F000         	goto	l2818
  3481  0000F6                     l2804:
  3482                           
  3483                           ;newmain.c: 1108: i++;
  3484  0000F6  4A07               	infsnz	do_move@i^0,f,c
  3485  0000F8  2A08               	incf	(do_move@i+1)^0,f,c
  3486  0000FA                     
  3487                           ;newmain.c: 1109: RE5=1;
  3488  0000FA  8A84               	bsf	3972,5,c	;volatile
  3489  0000FC                     
  3490                           ;newmain.c: 1110: RH5=1;
  3491  0000FC  8A87               	bsf	3975,5,c	;volatile
  3492  0000FE                     
  3493                           ;newmain.c: 1111: _delay((unsigned long)((500)*(8000000/4000000.0)));
  3494  0000FE  0EC8               	movlw	200
  3495  000100                     u1857:
  3496  000100  D000               	nop2	
  3497  000102  2EE8               	decfsz	wreg,f,c
  3498  000104  D7FD               	bra	u1857
  3499  000106                     
  3500                           ;newmain.c: 1112: RE5=0;
  3501  000106  9A84               	bcf	3972,5,c	;volatile
  3502  000108                     
  3503                           ;newmain.c: 1113: RH5=0;
  3504  000108  9A87               	bcf	3975,5,c	;volatile
  3505  00010A                     
  3506                           ;newmain.c: 1114: _delay((unsigned long)((500)*(8000000/4000000.0)));
  3507  00010A  0EC8               	movlw	200
  3508  00010C                     u1867:
  3509  00010C  D000               	nop2	
  3510  00010E  2EE8               	decfsz	wreg,f,c
  3511  000110  D7FD               	bra	u1867
  3512  000112                     l2818:
  3513  000112  BE08               	btfsc	(do_move@i+1)^0,7,c
  3514  000114  EF97  F000         	goto	u1510
  3515  000118  5008               	movf	(do_move@i+1)^0,w,c
  3516  00011A  E107               	bnz	u1511
  3517  00011C  0EC9               	movlw	201
  3518  00011E  5C07               	subwf	do_move@i^0,w,c
  3519  000120  B0D8               	btfsc	status,0,c
  3520  000122  EF95  F000         	goto	u1511
  3521  000126  EF97  F000         	goto	u1510
  3522  00012A                     u1511:
  3523  00012A  EF7B  F000         	goto	l2804
  3524  00012E                     u1510:
  3525  00012E                     
  3526                           ;newmain.c: 1116: };newmain.c: 1117: i=0;
  3527  00012E  0E00               	movlw	0
  3528  000130  6E08               	movwf	(do_move@i+1)^0,c
  3529  000132  0E00               	movlw	0
  3530  000134  6E07               	movwf	do_move@i^0,c
  3531  000136                     l2822:
  3532                           
  3533                           ;newmain.c: 1119: RE7=1;
  3534  000136  8E84               	bsf	3972,7,c	;volatile
  3535                           
  3536                           ;newmain.c: 1120: while(i>100){
  3537  000138  EFAA  F000         	goto	l418
  3538  00013C                     l419:
  3539                           
  3540                           ;newmain.c: 1121: RE5=1;
  3541  00013C  8A84               	bsf	3972,5,c	;volatile
  3542  00013E                     
  3543                           ;newmain.c: 1122: _delay((unsigned long)((500)*(8000000/4000000.0)));
  3544  00013E  0EC8               	movlw	200
  3545  000140                     u1877:
  3546  000140  D000               	nop2	
  3547  000142  2EE8               	decfsz	wreg,f,c
  3548  000144  D7FD               	bra	u1877
  3549  000146                     
  3550                           ;newmain.c: 1123: RE5=0;
  3551  000146  9A84               	bcf	3972,5,c	;volatile
  3552                           
  3553                           ;newmain.c: 1124: _delay((unsigned long)((500)*(8000000/4000000.0)));
  3554  000148  0EC8               	movlw	200
  3555  00014A                     u1887:
  3556  00014A  D000               	nop2	
  3557  00014C  2EE8               	decfsz	wreg,f,c
  3558  00014E  D7FD               	bra	u1887
  3559  000150                     
  3560                           ;newmain.c: 1125: i++;
  3561  000150  4A07               	infsnz	do_move@i^0,f,c
  3562  000152  2A08               	incf	(do_move@i+1)^0,f,c
  3563  000154                     l418:
  3564  000154  BE08               	btfsc	(do_move@i+1)^0,7,c
  3565  000156  EFB8  F000         	goto	u1520
  3566  00015A  5008               	movf	(do_move@i+1)^0,w,c
  3567  00015C  E107               	bnz	u1521
  3568  00015E  0E65               	movlw	101
  3569  000160  5C07               	subwf	do_move@i^0,w,c
  3570  000162  B0D8               	btfsc	status,0,c
  3571  000164  EFB6  F000         	goto	u1521
  3572  000168  EFB8  F000         	goto	u1520
  3573  00016C                     u1521:
  3574  00016C  EF9E  F000         	goto	l419
  3575  000170                     u1520:
  3576  000170                     
  3577                           ;newmain.c: 1127: };newmain.c: 1128: i=0;
  3578  000170  0E00               	movlw	0
  3579  000172  6E08               	movwf	(do_move@i+1)^0,c
  3580  000174  0E00               	movlw	0
  3581  000176  6E07               	movwf	do_move@i^0,c
  3582  000178                     l2832:
  3583                           
  3584                           ;newmain.c: 1130: RH7=1;
  3585  000178  8E87               	bsf	3975,7,c	;volatile
  3586                           
  3587                           ;newmain.c: 1131: while(i>100){
  3588  00017A  EFCB  F000         	goto	l422
  3589  00017E                     l423:
  3590                           
  3591                           ;newmain.c: 1132: RH5=1;
  3592  00017E  8A87               	bsf	3975,5,c	;volatile
  3593  000180                     
  3594                           ;newmain.c: 1133: _delay((unsigned long)((500)*(8000000/4000000.0)));
  3595  000180  0EC8               	movlw	200
  3596  000182                     u1897:
  3597  000182  D000               	nop2	
  3598  000184  2EE8               	decfsz	wreg,f,c
  3599  000186  D7FD               	bra	u1897
  3600  000188                     
  3601                           ;newmain.c: 1134: RH5=0;
  3602  000188  9A87               	bcf	3975,5,c	;volatile
  3603                           
  3604                           ;newmain.c: 1135: _delay((unsigned long)((500)*(8000000/4000000.0)));
  3605  00018A  0EC8               	movlw	200
  3606  00018C                     u1907:
  3607  00018C  D000               	nop2	
  3608  00018E  2EE8               	decfsz	wreg,f,c
  3609  000190  D7FD               	bra	u1907
  3610  000192                     
  3611                           ;newmain.c: 1136: i++;
  3612  000192  4A07               	infsnz	do_move@i^0,f,c
  3613  000194  2A08               	incf	(do_move@i+1)^0,f,c
  3614  000196                     l422:
  3615  000196  BE08               	btfsc	(do_move@i+1)^0,7,c
  3616  000198  EFD9  F000         	goto	u1530
  3617  00019C  5008               	movf	(do_move@i+1)^0,w,c
  3618  00019E  E107               	bnz	u1531
  3619  0001A0  0E65               	movlw	101
  3620  0001A2  5C07               	subwf	do_move@i^0,w,c
  3621  0001A4  B0D8               	btfsc	status,0,c
  3622  0001A6  EFD7  F000         	goto	u1531
  3623  0001AA  EFD9  F000         	goto	u1530
  3624  0001AE                     u1531:
  3625  0001AE  EFBF  F000         	goto	l423
  3626  0001B2                     u1530:
  3627  0001B2                     l2842:
  3628                           
  3629                           ;newmain.c: 1141: RH5=0;
  3630  0001B2  9A87               	bcf	3975,5,c	;volatile
  3631  0001B4                     
  3632                           ;newmain.c: 1142: RE0=0;
  3633  0001B4  9084               	bcf	3972,0,c	;volatile
  3634                           
  3635                           ;newmain.c: 1145: }
  3636  0001B6  EFFF  F000         	goto	l427
  3637  0001BA                     l2846:
  3638  0001BA  C003  F005         	movff	do_move@dir,??_do_move
  3639  0001BE  C004  F006         	movff	do_move@dir+1,??_do_move+1
  3640                           
  3641                           ; Switch on 2 bytes has been partitioned into a top level switch of size 1, and 1 sub-sw
      +                          itches
  3642                           ; Switch size 1, requested type "simple"
  3643                           ; Number of cases is 1, Range of values is 0 to 0
  3644                           ; switch strategies available:
  3645                           ; Name         Instructions Cycles
  3646                           ; simple_byte            4     3 (average)
  3647                           ;	Chosen strategy is simple_byte
  3648  0001C2  5006               	movf	(??_do_move+1)^0,w,c
  3649  0001C4  0A00               	xorlw	0	; case 0
  3650  0001C6  B4D8               	btfsc	status,2,c
  3651  0001C8  EFE8  F000         	goto	l3108
  3652  0001CC  EFFF  F000         	goto	l427
  3653  0001D0                     l3108:
  3654                           
  3655                           ; Switch size 1, requested type "simple"
  3656                           ; Number of cases is 5, Range of values is 0 to 4
  3657                           ; switch strategies available:
  3658                           ; Name         Instructions Cycles
  3659                           ; simple_byte           16     9 (average)
  3660                           ;	Chosen strategy is simple_byte
  3661  0001D0  5005               	movf	??_do_move^0,w,c
  3662  0001D2  0A00               	xorlw	0	; case 0
  3663  0001D4  B4D8               	btfsc	status,2,c
  3664  0001D6  EFD9  F000         	goto	l2842
  3665  0001DA  0A01               	xorlw	1	; case 1
  3666  0001DC  B4D8               	btfsc	status,2,c
  3667  0001DE  EF53  F000         	goto	l409
  3668  0001E2  0A03               	xorlw	3	; case 2
  3669  0001E4  B4D8               	btfsc	status,2,c
  3670  0001E6  EF77  F000         	goto	l2800
  3671  0001EA  0A01               	xorlw	1	; case 3
  3672  0001EC  B4D8               	btfsc	status,2,c
  3673  0001EE  EF9B  F000         	goto	l2822
  3674  0001F2  0A07               	xorlw	7	; case 4
  3675  0001F4  B4D8               	btfsc	status,2,c
  3676  0001F6  EFBC  F000         	goto	l2832
  3677  0001FA  EFFF  F000         	goto	l427
  3678  0001FE                     l427:
  3679  0001FE  0012               	return		;funcret
  3680  000200                     __end_of_do_move:
  3681                           	callstack 0
  3682                           
  3683 ;; *************** function _connected_to_thingspeak *****************
  3684 ;; Defined at:
  3685 ;;		line 1046 in file "newmain.c"
  3686 ;; Parameters:    Size  Location     Type
  3687 ;;		None
  3688 ;; Auto vars:     Size  Location     Type
  3689 ;;		None
  3690 ;; Return value:  Size  Location     Type
  3691 ;;                  1    wreg      void 
  3692 ;; Registers used:
  3693 ;;		wreg, fsr0l, fsr0h, status,2, status,0, tblptrl, tblptrh, tblptru, cstack
  3694 ;; Tracked objects:
  3695 ;;		On entry : 0/0
  3696 ;;		On exit  : 0/0
  3697 ;;		Unchanged: 0/0
  3698 ;; Data sizes:     COMRAM   BANK0   BANK1   BANK2   BANK3   BANK4   BANK5   BANK6   BANK7   BANK8   BANK9  BANK10  BANK1
      +1  BANK12  BANK13  BANK14  BANK15
  3699 ;;      Params:         0       0       0       0       0       0       0       0       0       0       0       0       
      +0       0       0       0       0
  3700 ;;      Locals:         0       0       0       0       0       0       0       0       0       0       0       0       
      +0       0       0       0       0
  3701 ;;      Temps:          2       0       0       0       0       0       0       0       0       0       0       0       
      +0       0       0       0       0
  3702 ;;      Totals:         2       0       0       0       0       0       0       0       0       0       0       0       
      +0       0       0       0       0
  3703 ;;Total ram usage:        2 bytes
  3704 ;; Hardware stack levels used:    1
  3705 ;; Hardware stack levels required when called:    2
  3706 ;; This function calls:
  3707 ;;		_uart_text_write
  3708 ;; This function is called by:
  3709 ;;		_main
  3710 ;; This function uses a non-reentrant model
  3711 ;;
  3712                           
  3713                           	psect	text15
  3714  0013C6                     __ptext15:
  3715                           	callstack 0
  3716  0013C6                     _connected_to_thingspeak:
  3717                           	callstack 28
  3718  0013C6                     
  3719                           ;newmain.c: 1048: uart_text_write(tcp_web);
  3720  0013C6  0E8C               	movlw	low _tcp_web
  3721  0013C8  6E03               	movwf	uart_text_write@RF6^0,c
  3722  0013CA  0E01               	movlw	high _tcp_web
  3723  0013CC  6E04               	movwf	(uart_text_write@RF6+1)^0,c
  3724  0013CE  ECC6  F006         	call	_uart_text_write	;wreg free
  3725  0013D2                     
  3726                           ;newmain.c: 1049: _delay((unsigned long)((1000)*(8000000/4000.0)));
  3727  0013D2  0E0B               	movlw	11
  3728  0013D4  6E0A               	movwf	(??_connected_to_thingspeak+1)^0,c
  3729  0013D6  0E26               	movlw	38
  3730  0013D8  6E09               	movwf	??_connected_to_thingspeak^0,c
  3731  0013DA  0E5E               	movlw	94
  3732  0013DC                     u1917:
  3733  0013DC  2EE8               	decfsz	wreg,f,c
  3734  0013DE  D7FE               	bra	u1917
  3735  0013E0  2E09               	decfsz	??_connected_to_thingspeak^0,f,c
  3736  0013E2  D7FC               	bra	u1917
  3737  0013E4  2E0A               	decfsz	(??_connected_to_thingspeak+1)^0,f,c
  3738  0013E6  D7FA               	bra	u1917
  3739  0013E8  0012               	return		;funcret
  3740  0013EA                     __end_of_connected_to_thingspeak:
  3741                           	callstack 0
  3742                           
  3743 ;; *************** function _config *****************
  3744 ;; Defined at:
  3745 ;;		line 352 in file "newmain.c"
  3746 ;; Parameters:    Size  Location     Type
  3747 ;;		None
  3748 ;; Auto vars:     Size  Location     Type
  3749 ;;		None
  3750 ;; Return value:  Size  Location     Type
  3751 ;;                  1    wreg      void 
  3752 ;; Registers used:
  3753 ;;		wreg, status,2, cstack
  3754 ;; Tracked objects:
  3755 ;;		On entry : 0/0
  3756 ;;		On exit  : 0/0
  3757 ;;		Unchanged: 0/0
  3758 ;; Data sizes:     COMRAM   BANK0   BANK1   BANK2   BANK3   BANK4   BANK5   BANK6   BANK7   BANK8   BANK9  BANK10  BANK1
      +1  BANK12  BANK13  BANK14  BANK15
  3759 ;;      Params:         0       0       0       0       0       0       0       0       0       0       0       0       
      +0       0       0       0       0
  3760 ;;      Locals:         0       0       0       0       0       0       0       0       0       0       0       0       
      +0       0       0       0       0
  3761 ;;      Temps:          2       0       0       0       0       0       0       0       0       0       0       0       
      +0       0       0       0       0
  3762 ;;      Totals:         2       0       0       0       0       0       0       0       0       0       0       0       
      +0       0       0       0       0
  3763 ;;Total ram usage:        2 bytes
  3764 ;; Hardware stack levels used:    1
  3765 ;; Hardware stack levels required when called:    2
  3766 ;; This function calls:
  3767 ;;		_uart_init
  3768 ;; This function is called by:
  3769 ;;		_main
  3770 ;; This function uses a non-reentrant model
  3771 ;;
  3772                           
  3773                           	psect	text16
  3774  001126                     __ptext16:
  3775                           	callstack 0
  3776  001126                     _config:
  3777                           	callstack 28
  3778  001126                     
  3779                           ;newmain.c: 355: PCFG0=0 ; PCFG1=1 ; PCFG2=1; PCFG3=0;
  3780  001126  90C1               	bcf	4033,0,c	;volatile
  3781  001128  82C1               	bsf	4033,1,c	;volatile
  3782  00112A  84C1               	bsf	4033,2,c	;volatile
  3783  00112C  96C1               	bcf	4033,3,c	;volatile
  3784                           
  3785                           ;newmain.c: 357: TRISB0 = 1;
  3786  00112E  8093               	bsf	3987,0,c	;volatile
  3787                           
  3788                           ;newmain.c: 367: TRISF6=0;
  3789  001130  9C97               	bcf	3991,6,c	;volatile
  3790                           
  3791                           ;newmain.c: 368: RF6=0;
  3792  001132  9C85               	bcf	3973,6,c	;volatile
  3793                           
  3794                           ;newmain.c: 370: TRISF6 = 0;
  3795  001134  9C97               	bcf	3991,6,c	;volatile
  3796                           
  3797                           ;newmain.c: 371: RF6=0;
  3798  001136  9C85               	bcf	3973,6,c	;volatile
  3799                           
  3800                           ;newmain.c: 373: RF6 = 1; RF6 =1;
  3801  001138  8C85               	bsf	3973,6,c	;volatile
  3802  00113A  8C85               	bsf	3973,6,c	;volatile
  3803  00113C                     
  3804                           ;newmain.c: 374: _delay((unsigned long)((500)*(8000000/4000.0)));
  3805  00113C  0E06               	movlw	6
  3806  00113E  6E04               	movwf	(??_config+1)^0,c
  3807  001140  0E13               	movlw	19
  3808  001142  6E03               	movwf	??_config^0,c
  3809  001144  0EAE               	movlw	174
  3810  001146                     u1927:
  3811  001146  2EE8               	decfsz	wreg,f,c
  3812  001148  D7FE               	bra	u1927
  3813  00114A  2E03               	decfsz	??_config^0,f,c
  3814  00114C  D7FC               	bra	u1927
  3815  00114E  2E04               	decfsz	(??_config+1)^0,f,c
  3816  001150  D7FA               	bra	u1927
  3817  001152                     
  3818                           ;newmain.c: 375: RF6 = 0; RF6 =0;
  3819  001152  9C85               	bcf	3973,6,c	;volatile
  3820  001154  9C85               	bcf	3973,6,c	;volatile
  3821  001156                     
  3822                           ;newmain.c: 378: TRISC1 = 0;
  3823  001156  9294               	bcf	3988,1,c	;volatile
  3824  001158                     
  3825                           ;newmain.c: 379: RC1 = 0;
  3826  001158  9282               	bcf	3970,1,c	;volatile
  3827                           
  3828                           ;newmain.c: 382: _delay((unsigned long)((500)*(8000000/4000.0)));
  3829  00115A  0E06               	movlw	6
  3830  00115C  6E04               	movwf	(??_config+1)^0,c
  3831  00115E  0E13               	movlw	19
  3832  001160  6E03               	movwf	??_config^0,c
  3833  001162  0EAE               	movlw	174
  3834  001164                     u1937:
  3835  001164  2EE8               	decfsz	wreg,f,c
  3836  001166  D7FE               	bra	u1937
  3837  001168  2E03               	decfsz	??_config^0,f,c
  3838  00116A  D7FC               	bra	u1937
  3839  00116C  2E04               	decfsz	(??_config+1)^0,f,c
  3840  00116E  D7FA               	bra	u1937
  3841  001170                     
  3842                           ;newmain.c: 385: uart_init();
  3843  001170  EC6B  F00A         	call	_uart_init	;wreg free
  3844  001174  0012               	return		;funcret
  3845  001176                     __end_of_config:
  3846                           	callstack 0
  3847                           
  3848 ;; *************** function _WiFi_Config *****************
  3849 ;; Defined at:
  3850 ;;		line 718 in file "newmain.c"
  3851 ;; Parameters:    Size  Location     Type
  3852 ;;		None
  3853 ;; Auto vars:     Size  Location     Type
  3854 ;;		None
  3855 ;; Return value:  Size  Location     Type
  3856 ;;                  1    wreg      void 
  3857 ;; Registers used:
  3858 ;;		wreg, fsr0l, fsr0h, fsr2l, fsr2h, status,2, status,0, tblptrl, tblptrh, tblptru, cstack
  3859 ;; Tracked objects:
  3860 ;;		On entry : 0/0
  3861 ;;		On exit  : 0/0
  3862 ;;		Unchanged: 0/0
  3863 ;; Data sizes:     COMRAM   BANK0   BANK1   BANK2   BANK3   BANK4   BANK5   BANK6   BANK7   BANK8   BANK9  BANK10  BANK1
      +1  BANK12  BANK13  BANK14  BANK15
  3864 ;;      Params:         0       0       0       0       0       0       0       0       0       0       0       0       
      +0       0       0       0       0
  3865 ;;      Locals:         0       0       0       0       0       0       0       0       0       0       0       0       
      +0       0       0       0       0
  3866 ;;      Temps:          2       0       0       0       0       0       0       0       0       0       0       0       
      +0       0       0       0       0
  3867 ;;      Totals:         2       0       0       0       0       0       0       0       0       0       0       0       
      +0       0       0       0       0
  3868 ;;Total ram usage:        2 bytes
  3869 ;; Hardware stack levels used:    1
  3870 ;; Hardware stack levels required when called:    5
  3871 ;; This function calls:
  3872 ;;		_UART_Write_AT
  3873 ;;		_ap_and_station_mode
  3874 ;;		_check_connected_ap
  3875 ;;		_connected_to_ap
  3876 ;;		_disconnect_ap
  3877 ;;		_memset
  3878 ;;		_mult_connection
  3879 ;;		_reset_buff
  3880 ;;		_reset_wifi
  3881 ;;		_response_success
  3882 ;; This function is called by:
  3883 ;;		_main
  3884 ;; This function uses a non-reentrant model
  3885 ;;
  3886                           
  3887                           	psect	text17
  3888  00076C                     __ptext17:
  3889                           	callstack 0
  3890  00076C                     _WiFi_Config:
  3891                           	callstack 25
  3892  00076C                     
  3893                           ;newmain.c: 721: data_ready = 0;
  3894  00076C  0E00               	movlw	0
  3895  00076E  6E3A               	movwf	_data_ready^0,c
  3896                           
  3897                           ;newmain.c: 722: data_len = 0;
  3898  000770  0E00               	movlw	0
  3899  000772  6E38               	movwf	(_data_len+1)^0,c
  3900  000774  0E00               	movlw	0
  3901  000776  6E37               	movwf	_data_len^0,c
  3902  000778                     
  3903                           ;newmain.c: 723: memset(rx_buff,0,500);
  3904  000778  0E5A               	movlw	low _rx_buff
  3905  00077A  6E03               	movwf	memset@p1^0,c
  3906  00077C  0E02               	movlw	high _rx_buff
  3907  00077E  6E04               	movwf	(memset@p1+1)^0,c
  3908  000780  0E00               	movlw	0
  3909  000782  6E06               	movwf	(memset@c+1)^0,c
  3910  000784  0E00               	movlw	0
  3911  000786  6E05               	movwf	memset@c^0,c
  3912  000788  0E01               	movlw	1
  3913  00078A  6E08               	movwf	(memset@n+1)^0,c
  3914  00078C  0EF4               	movlw	244
  3915  00078E  6E07               	movwf	memset@n^0,c
  3916  000790  EC9F  F009         	call	_memset	;wreg free
  3917  000794                     
  3918                           ;newmain.c: 730: reset_wifi();
  3919  000794  EC06  F00A         	call	_reset_wifi	;wreg free
  3920  000798                     l2712:
  3921  000798  ECAA  F004         	call	_response_success	;wreg free
  3922  00079C  0A02               	xorlw	2
  3923  00079E  A4D8               	btfss	status,2,c
  3924  0007A0  EFD4  F003         	goto	u1421
  3925  0007A4  EFD6  F003         	goto	u1420
  3926  0007A8                     u1421:
  3927  0007A8  EFCC  F003         	goto	l2712
  3928  0007AC                     u1420:
  3929  0007AC                     
  3930                           ;newmain.c: 732: _delay((unsigned long)((1000)*(8000000/4000.0)));
  3931  0007AC  0E0B               	movlw	11
  3932  0007AE  6E1A               	movwf	(??_WiFi_Config+1)^0,c
  3933  0007B0  0E26               	movlw	38
  3934  0007B2  6E19               	movwf	??_WiFi_Config^0,c
  3935  0007B4  0E5E               	movlw	94
  3936  0007B6                     u1947:
  3937  0007B6  2EE8               	decfsz	wreg,f,c
  3938  0007B8  D7FE               	bra	u1947
  3939  0007BA  2E19               	decfsz	??_WiFi_Config^0,f,c
  3940  0007BC  D7FC               	bra	u1947
  3941  0007BE  2E1A               	decfsz	(??_WiFi_Config+1)^0,f,c
  3942  0007C0  D7FA               	bra	u1947
  3943  0007C2                     
  3944                           ;newmain.c: 739: UART_Write_AT("AT");
  3945  0007C2  0EF0               	movlw	low STR_26
  3946  0007C4  6E09               	movwf	UART_Write_AT@_data^0,c
  3947  0007C6  0EBF               	movlw	high STR_26
  3948  0007C8  6E0A               	movwf	(UART_Write_AT@_data+1)^0,c
  3949  0007CA  EC22  F00A         	call	_UART_Write_AT	;wreg free
  3950  0007CE                     l2718:
  3951  0007CE  ECAA  F004         	call	_response_success	;wreg free
  3952  0007D2  06E8               	decf	wreg,f,c
  3953  0007D4  A4D8               	btfss	status,2,c
  3954  0007D6  EFEF  F003         	goto	u1431
  3955  0007DA  EFF1  F003         	goto	u1430
  3956  0007DE                     u1431:
  3957  0007DE  EFE7  F003         	goto	l2718
  3958  0007E2                     u1430:
  3959  0007E2                     
  3960                           ;newmain.c: 744: disconnect_ap();
  3961  0007E2  EC67  F009         	call	_disconnect_ap	;wreg free
  3962  0007E6                     
  3963                           ;newmain.c: 745: _delay((unsigned long)((500)*(8000000/4000.0)));
  3964  0007E6  0E06               	movlw	6
  3965  0007E8  6E1A               	movwf	(??_WiFi_Config+1)^0,c
  3966  0007EA  0E13               	movlw	19
  3967  0007EC  6E19               	movwf	??_WiFi_Config^0,c
  3968  0007EE  0EAE               	movlw	174
  3969  0007F0                     u1957:
  3970  0007F0  2EE8               	decfsz	wreg,f,c
  3971  0007F2  D7FE               	bra	u1957
  3972  0007F4  2E19               	decfsz	??_WiFi_Config^0,f,c
  3973  0007F6  D7FC               	bra	u1957
  3974  0007F8  2E1A               	decfsz	(??_WiFi_Config+1)^0,f,c
  3975  0007FA  D7FA               	bra	u1957
  3976  0007FC                     
  3977                           ;newmain.c: 746: ap_and_station_mode();
  3978  0007FC  EC83  F009         	call	_ap_and_station_mode	;wreg free
  3979                           
  3980                           ;newmain.c: 747: _delay((unsigned long)((500)*(8000000/4000.0)));
  3981  000800  0E06               	movlw	6
  3982  000802  6E1A               	movwf	(??_WiFi_Config+1)^0,c
  3983  000804  0E13               	movlw	19
  3984  000806  6E19               	movwf	??_WiFi_Config^0,c
  3985  000808  0EAE               	movlw	174
  3986  00080A                     u1967:
  3987  00080A  2EE8               	decfsz	wreg,f,c
  3988  00080C  D7FE               	bra	u1967
  3989  00080E  2E19               	decfsz	??_WiFi_Config^0,f,c
  3990  000810  D7FC               	bra	u1967
  3991  000812  2E1A               	decfsz	(??_WiFi_Config+1)^0,f,c
  3992  000814  D7FA               	bra	u1967
  3993  000816                     
  3994                           ;newmain.c: 748: mult_connection();
  3995  000816  EC4B  F009         	call	_mult_connection	;wreg free
  3996  00081A                     
  3997                           ;newmain.c: 751: _delay((unsigned long)((500)*(8000000/4000.0)));
  3998  00081A  0E06               	movlw	6
  3999  00081C  6E1A               	movwf	(??_WiFi_Config+1)^0,c
  4000  00081E  0E13               	movlw	19
  4001  000820  6E19               	movwf	??_WiFi_Config^0,c
  4002  000822  0EAE               	movlw	174
  4003  000824                     u1977:
  4004  000824  2EE8               	decfsz	wreg,f,c
  4005  000826  D7FE               	bra	u1977
  4006  000828  2E19               	decfsz	??_WiFi_Config^0,f,c
  4007  00082A  D7FC               	bra	u1977
  4008  00082C  2E1A               	decfsz	(??_WiFi_Config+1)^0,f,c
  4009  00082E  D7FA               	bra	u1977
  4010                           
  4011                           ;newmain.c: 752: connected_to_ap();
  4012  000830  EC4C  F007         	call	_connected_to_ap	;wreg free
  4013  000834                     
  4014                           ;newmain.c: 753: _delay((unsigned long)((500)*(8000000/4000.0)));
  4015  000834  0E06               	movlw	6
  4016  000836  6E1A               	movwf	(??_WiFi_Config+1)^0,c
  4017  000838  0E13               	movlw	19
  4018  00083A  6E19               	movwf	??_WiFi_Config^0,c
  4019  00083C  0EAE               	movlw	174
  4020  00083E                     u1987:
  4021  00083E  2EE8               	decfsz	wreg,f,c
  4022  000840  D7FE               	bra	u1987
  4023  000842  2E19               	decfsz	??_WiFi_Config^0,f,c
  4024  000844  D7FC               	bra	u1987
  4025  000846  2E1A               	decfsz	(??_WiFi_Config+1)^0,f,c
  4026  000848  D7FA               	bra	u1987
  4027  00084A                     
  4028                           ;newmain.c: 756: check_connected_ap();
  4029  00084A  ECF5  F009         	call	_check_connected_ap	;wreg free
  4030                           
  4031                           ;newmain.c: 761: _delay((unsigned long)((500)*(8000000/4000.0)));
  4032  00084E  0E06               	movlw	6
  4033  000850  6E1A               	movwf	(??_WiFi_Config+1)^0,c
  4034  000852  0E13               	movlw	19
  4035  000854  6E19               	movwf	??_WiFi_Config^0,c
  4036  000856  0EAE               	movlw	174
  4037  000858                     u1997:
  4038  000858  2EE8               	decfsz	wreg,f,c
  4039  00085A  D7FE               	bra	u1997
  4040  00085C  2E19               	decfsz	??_WiFi_Config^0,f,c
  4041  00085E  D7FC               	bra	u1997
  4042  000860  2E1A               	decfsz	(??_WiFi_Config+1)^0,f,c
  4043  000862  D7FA               	bra	u1997
  4044  000864                     
  4045                           ;newmain.c: 768: reset_buff();
  4046  000864  ECBB  F009         	call	_reset_buff	;wreg free
  4047  000868  0012               	return		;funcret
  4048  00086A                     __end_of_WiFi_Config:
  4049                           	callstack 0
  4050                           
  4051 ;; *************** function _reset_wifi *****************
  4052 ;; Defined at:
  4053 ;;		line 433 in file "newmain.c"
  4054 ;; Parameters:    Size  Location     Type
  4055 ;;		None
  4056 ;; Auto vars:     Size  Location     Type
  4057 ;;		None
  4058 ;; Return value:  Size  Location     Type
  4059 ;;                  1    wreg      void 
  4060 ;; Registers used:
  4061 ;;		wreg
  4062 ;; Tracked objects:
  4063 ;;		On entry : 0/0
  4064 ;;		On exit  : 0/0
  4065 ;;		Unchanged: 0/0
  4066 ;; Data sizes:     COMRAM   BANK0   BANK1   BANK2   BANK3   BANK4   BANK5   BANK6   BANK7   BANK8   BANK9  BANK10  BANK1
      +1  BANK12  BANK13  BANK14  BANK15
  4067 ;;      Params:         0       0       0       0       0       0       0       0       0       0       0       0       
      +0       0       0       0       0
  4068 ;;      Locals:         0       0       0       0       0       0       0       0       0       0       0       0       
      +0       0       0       0       0
  4069 ;;      Temps:          2       0       0       0       0       0       0       0       0       0       0       0       
      +0       0       0       0       0
  4070 ;;      Totals:         2       0       0       0       0       0       0       0       0       0       0       0       
      +0       0       0       0       0
  4071 ;;Total ram usage:        2 bytes
  4072 ;; Hardware stack levels used:    1
  4073 ;; Hardware stack levels required when called:    1
  4074 ;; This function calls:
  4075 ;;		Nothing
  4076 ;; This function is called by:
  4077 ;;		_WiFi_Config
  4078 ;; This function uses a non-reentrant model
  4079 ;;
  4080                           
  4081                           	psect	text18
  4082  00140C                     __ptext18:
  4083                           	callstack 0
  4084  00140C                     _reset_wifi:
  4085                           	callstack 28
  4086  00140C                     
  4087                           ;newmain.c: 435: RC1= 0;
  4088  00140C  9282               	bcf	3970,1,c	;volatile
  4089  00140E                     
  4090                           ;newmain.c: 437: _delay((unsigned long)((500)*(8000000/4000.0)));
  4091  00140E  0E06               	movlw	6
  4092  001410  6E04               	movwf	(??_reset_wifi+1)^0,c
  4093  001412  0E13               	movlw	19
  4094  001414  6E03               	movwf	??_reset_wifi^0,c
  4095  001416  0EAE               	movlw	174
  4096  001418                     u2007:
  4097  001418  2EE8               	decfsz	wreg,f,c
  4098  00141A  D7FE               	bra	u2007
  4099  00141C  2E03               	decfsz	??_reset_wifi^0,f,c
  4100  00141E  D7FC               	bra	u2007
  4101  001420  2E04               	decfsz	(??_reset_wifi+1)^0,f,c
  4102  001422  D7FA               	bra	u2007
  4103  001424                     
  4104                           ;newmain.c: 439: RC1 = 0;
  4105  001424  9282               	bcf	3970,1,c	;volatile
  4106  001426  0012               	return		;funcret
  4107  001428                     __end_of_reset_wifi:
  4108                           	callstack 0
  4109                           
  4110 ;; *************** function _mult_connection *****************
  4111 ;; Defined at:
  4112 ;;		line 615 in file "newmain.c"
  4113 ;; Parameters:    Size  Location     Type
  4114 ;;		None
  4115 ;; Auto vars:     Size  Location     Type
  4116 ;;		None
  4117 ;; Return value:  Size  Location     Type
  4118 ;;                  1    wreg      void 
  4119 ;; Registers used:
  4120 ;;		wreg, fsr0l, fsr0h, fsr2l, fsr2h, status,2, status,0, tblptrl, tblptrh, tblptru, cstack
  4121 ;; Tracked objects:
  4122 ;;		On entry : 0/0
  4123 ;;		On exit  : 0/0
  4124 ;;		Unchanged: 0/0
  4125 ;; Data sizes:     COMRAM   BANK0   BANK1   BANK2   BANK3   BANK4   BANK5   BANK6   BANK7   BANK8   BANK9  BANK10  BANK1
      +1  BANK12  BANK13  BANK14  BANK15
  4126 ;;      Params:         0       0       0       0       0       0       0       0       0       0       0       0       
      +0       0       0       0       0
  4127 ;;      Locals:         0       0       0       0       0       0       0       0       0       0       0       0       
      +0       0       0       0       0
  4128 ;;      Temps:          2       0       0       0       0       0       0       0       0       0       0       0       
      +0       0       0       0       0
  4129 ;;      Totals:         2       0       0       0       0       0       0       0       0       0       0       0       
      +0       0       0       0       0
  4130 ;;Total ram usage:        2 bytes
  4131 ;; Hardware stack levels used:    1
  4132 ;; Hardware stack levels required when called:    4
  4133 ;; This function calls:
  4134 ;;		_UART_Write_AT
  4135 ;;		_response_success
  4136 ;; This function is called by:
  4137 ;;		_WiFi_Config
  4138 ;; This function uses a non-reentrant model
  4139 ;;
  4140                           
  4141                           	psect	text19
  4142  001296                     __ptext19:
  4143                           	callstack 0
  4144  001296                     _mult_connection:
  4145                           	callstack 25
  4146  001296                     
  4147                           ;newmain.c: 621: UART_Write_AT("AT+CIPMUX=1");
  4148  001296  0E45               	movlw	low STR_19
  4149  001298  6E09               	movwf	UART_Write_AT@_data^0,c
  4150  00129A  0EBF               	movlw	high STR_19
  4151  00129C  6E0A               	movwf	(UART_Write_AT@_data+1)^0,c
  4152  00129E  EC22  F00A         	call	_UART_Write_AT	;wreg free
  4153  0012A2                     l2616:
  4154  0012A2  ECAA  F004         	call	_response_success	;wreg free
  4155  0012A6  06E8               	decf	wreg,f,c
  4156  0012A8  A4D8               	btfss	status,2,c
  4157  0012AA  EF59  F009         	goto	u1361
  4158  0012AE  EF5B  F009         	goto	u1360
  4159  0012B2                     u1361:
  4160  0012B2  EF51  F009         	goto	l2616
  4161  0012B6                     u1360:
  4162  0012B6                     
  4163                           ;newmain.c: 623: _delay((unsigned long)((1000)*(8000000/4000.0)));
  4164  0012B6  0E0B               	movlw	11
  4165  0012B8  6E18               	movwf	(??_mult_connection+1)^0,c
  4166  0012BA  0E26               	movlw	38
  4167  0012BC  6E17               	movwf	??_mult_connection^0,c
  4168  0012BE  0E5E               	movlw	94
  4169  0012C0                     u2017:
  4170  0012C0  2EE8               	decfsz	wreg,f,c
  4171  0012C2  D7FE               	bra	u2017
  4172  0012C4  2E17               	decfsz	??_mult_connection^0,f,c
  4173  0012C6  D7FC               	bra	u2017
  4174  0012C8  2E18               	decfsz	(??_mult_connection+1)^0,f,c
  4175  0012CA  D7FA               	bra	u2017
  4176  0012CC  0012               	return		;funcret
  4177  0012CE                     __end_of_mult_connection:
  4178                           	callstack 0
  4179                           
  4180 ;; *************** function _disconnect_ap *****************
  4181 ;; Defined at:
  4182 ;;		line 581 in file "newmain.c"
  4183 ;; Parameters:    Size  Location     Type
  4184 ;;		None
  4185 ;; Auto vars:     Size  Location     Type
  4186 ;;		None
  4187 ;; Return value:  Size  Location     Type
  4188 ;;                  1    wreg      void 
  4189 ;; Registers used:
  4190 ;;		wreg, fsr0l, fsr0h, fsr2l, fsr2h, status,2, status,0, tblptrl, tblptrh, tblptru, cstack
  4191 ;; Tracked objects:
  4192 ;;		On entry : 0/0
  4193 ;;		On exit  : 0/0
  4194 ;;		Unchanged: 0/0
  4195 ;; Data sizes:     COMRAM   BANK0   BANK1   BANK2   BANK3   BANK4   BANK5   BANK6   BANK7   BANK8   BANK9  BANK10  BANK1
      +1  BANK12  BANK13  BANK14  BANK15
  4196 ;;      Params:         0       0       0       0       0       0       0       0       0       0       0       0       
      +0       0       0       0       0
  4197 ;;      Locals:         0       0       0       0       0       0       0       0       0       0       0       0       
      +0       0       0       0       0
  4198 ;;      Temps:          2       0       0       0       0       0       0       0       0       0       0       0       
      +0       0       0       0       0
  4199 ;;      Totals:         2       0       0       0       0       0       0       0       0       0       0       0       
      +0       0       0       0       0
  4200 ;;Total ram usage:        2 bytes
  4201 ;; Hardware stack levels used:    1
  4202 ;; Hardware stack levels required when called:    4
  4203 ;; This function calls:
  4204 ;;		_UART_Write_AT
  4205 ;;		_response_success
  4206 ;; This function is called by:
  4207 ;;		_WiFi_Config
  4208 ;; This function uses a non-reentrant model
  4209 ;;
  4210                           
  4211                           	psect	text20
  4212  0012CE                     __ptext20:
  4213                           	callstack 0
  4214  0012CE                     _disconnect_ap:
  4215                           	callstack 25
  4216  0012CE                     
  4217                           ;newmain.c: 586: UART_Write_AT("AT+CWQAP");
  4218  0012CE  0E9C               	movlw	low STR_16
  4219  0012D0  6E09               	movwf	UART_Write_AT@_data^0,c
  4220  0012D2  0EBF               	movlw	high STR_16
  4221  0012D4  6E0A               	movwf	(UART_Write_AT@_data+1)^0,c
  4222  0012D6  EC22  F00A         	call	_UART_Write_AT	;wreg free
  4223  0012DA                     l2604:
  4224  0012DA  ECAA  F004         	call	_response_success	;wreg free
  4225  0012DE  06E8               	decf	wreg,f,c
  4226  0012E0  A4D8               	btfss	status,2,c
  4227  0012E2  EF75  F009         	goto	u1341
  4228  0012E6  EF77  F009         	goto	u1340
  4229  0012EA                     u1341:
  4230  0012EA  EF6D  F009         	goto	l2604
  4231  0012EE                     u1340:
  4232  0012EE                     
  4233                           ;newmain.c: 588: _delay((unsigned long)((1000)*(8000000/4000.0)));
  4234  0012EE  0E0B               	movlw	11
  4235  0012F0  6E18               	movwf	(??_disconnect_ap+1)^0,c
  4236  0012F2  0E26               	movlw	38
  4237  0012F4  6E17               	movwf	??_disconnect_ap^0,c
  4238  0012F6  0E5E               	movlw	94
  4239  0012F8                     u2027:
  4240  0012F8  2EE8               	decfsz	wreg,f,c
  4241  0012FA  D7FE               	bra	u2027
  4242  0012FC  2E17               	decfsz	??_disconnect_ap^0,f,c
  4243  0012FE  D7FC               	bra	u2027
  4244  001300  2E18               	decfsz	(??_disconnect_ap+1)^0,f,c
  4245  001302  D7FA               	bra	u2027
  4246  001304  0012               	return		;funcret
  4247  001306                     __end_of_disconnect_ap:
  4248                           	callstack 0
  4249                           
  4250 ;; *************** function _connected_to_ap *****************
  4251 ;; Defined at:
  4252 ;;		line 627 in file "newmain.c"
  4253 ;; Parameters:    Size  Location     Type
  4254 ;;		None
  4255 ;; Auto vars:     Size  Location     Type
  4256 ;;		None
  4257 ;; Return value:  Size  Location     Type
  4258 ;;                  1    wreg      void 
  4259 ;; Registers used:
  4260 ;;		wreg, fsr0l, fsr0h, fsr2l, fsr2h, status,2, status,0, tblptrl, tblptrh, tblptru, cstack
  4261 ;; Tracked objects:
  4262 ;;		On entry : 0/0
  4263 ;;		On exit  : 0/0
  4264 ;;		Unchanged: 0/0
  4265 ;; Data sizes:     COMRAM   BANK0   BANK1   BANK2   BANK3   BANK4   BANK5   BANK6   BANK7   BANK8   BANK9  BANK10  BANK1
      +1  BANK12  BANK13  BANK14  BANK15
  4266 ;;      Params:         0       0       0       0       0       0       0       0       0       0       0       0       
      +0       0       0       0       0
  4267 ;;      Locals:         0       0       0       0       0       0       0       0       0       0       0       0       
      +0       0       0       0       0
  4268 ;;      Temps:          2       0       0       0       0       0       0       0       0       0       0       0       
      +0       0       0       0       0
  4269 ;;      Totals:         2       0       0       0       0       0       0       0       0       0       0       0       
      +0       0       0       0       0
  4270 ;;Total ram usage:        2 bytes
  4271 ;; Hardware stack levels used:    1
  4272 ;; Hardware stack levels required when called:    4
  4273 ;; This function calls:
  4274 ;;		_UART_Write_AT
  4275 ;;		_new_line
  4276 ;;		_response_success
  4277 ;;		_uart_char_write
  4278 ;;		_uart_text_write
  4279 ;; This function is called by:
  4280 ;;		_WiFi_Config
  4281 ;; This function uses a non-reentrant model
  4282 ;;
  4283                           
  4284                           	psect	text21
  4285  000E98                     __ptext21:
  4286                           	callstack 0
  4287  000E98                     _connected_to_ap:
  4288                           	callstack 25
  4289  000E98                     l302:
  4290  000E98                     
  4291                           ;newmain.c: 632: {;newmain.c: 637: UART_Write_AT("AT+CWJAP=");
  4292  000E98  0E7F               	movlw	low STR_20
  4293  000E9A  6E09               	movwf	UART_Write_AT@_data^0,c
  4294  000E9C  0EBF               	movlw	high STR_20
  4295  000E9E  6E0A               	movwf	(UART_Write_AT@_data+1)^0,c
  4296  000EA0  EC22  F00A         	call	_UART_Write_AT	;wreg free
  4297  000EA4                     
  4298                           ;newmain.c: 638: uart_char_write('"');
  4299  000EA4  0E22               	movlw	34
  4300  000EA6  EC14  F00A         	call	_uart_char_write
  4301  000EAA                     
  4302                           ;newmain.c: 639: uart_text_write(SSID);
  4303  000EAA  0EEC               	movlw	low STR_1
  4304  000EAC  6E03               	movwf	uart_text_write@RF6^0,c
  4305  000EAE  0EBF               	movlw	high STR_1
  4306  000EB0  6E04               	movwf	(uart_text_write@RF6+1)^0,c
  4307  000EB2  ECC6  F006         	call	_uart_text_write	;wreg free
  4308                           
  4309                           ;newmain.c: 640: uart_char_write('"');
  4310  000EB6  0E22               	movlw	34
  4311  000EB8  EC14  F00A         	call	_uart_char_write
  4312                           
  4313                           ;newmain.c: 641: uart_char_write(',');
  4314  000EBC  0E2C               	movlw	44
  4315  000EBE  EC14  F00A         	call	_uart_char_write
  4316                           
  4317                           ;newmain.c: 642: uart_char_write('"');
  4318  000EC2  0E22               	movlw	34
  4319  000EC4  EC14  F00A         	call	_uart_char_write
  4320  000EC8                     
  4321                           ;newmain.c: 643: uart_text_write(password);
  4322  000EC8  0E69               	movlw	low STR_2
  4323  000ECA  6E03               	movwf	uart_text_write@RF6^0,c
  4324  000ECC  0EBF               	movlw	high STR_2
  4325  000ECE  6E04               	movwf	(uart_text_write@RF6+1)^0,c
  4326  000ED0  ECC6  F006         	call	_uart_text_write	;wreg free
  4327  000ED4                     
  4328                           ;newmain.c: 644: uart_char_write('"');
  4329  000ED4  0E22               	movlw	34
  4330  000ED6  EC14  F00A         	call	_uart_char_write
  4331  000EDA                     
  4332                           ;newmain.c: 645: new_line();
  4333  000EDA  EC8A  F00A         	call	_new_line	;wreg free
  4334  000EDE                     
  4335                           ;newmain.c: 646: if(response_success() == OK)
  4336  000EDE  ECAA  F004         	call	_response_success	;wreg free
  4337  000EE2  06E8               	decf	wreg,f,c
  4338  000EE4  A4D8               	btfss	status,2,c
  4339  000EE6  EF77  F007         	goto	u1371
  4340  000EEA  EF79  F007         	goto	u1370
  4341  000EEE                     u1371:
  4342  000EEE  EF7B  F007         	goto	l2638
  4343  000EF2                     u1370:
  4344  000EF2  EF88  F007         	goto	l307
  4345  000EF6                     l2638:
  4346                           
  4347                           ;newmain.c: 651: else;newmain.c: 652: {;newmain.c: 654: _delay((unsigned long)((500)*(80
      +                          00000/4000.0)));
  4348  000EF6  0E06               	movlw	6
  4349  000EF8  6E18               	movwf	(??_connected_to_ap+1)^0,c
  4350  000EFA  0E13               	movlw	19
  4351  000EFC  6E17               	movwf	??_connected_to_ap^0,c
  4352  000EFE  0EAE               	movlw	174
  4353  000F00                     u2037:
  4354  000F00  2EE8               	decfsz	wreg,f,c
  4355  000F02  D7FE               	bra	u2037
  4356  000F04  2E17               	decfsz	??_connected_to_ap^0,f,c
  4357  000F06  D7FC               	bra	u2037
  4358  000F08  2E18               	decfsz	(??_connected_to_ap+1)^0,f,c
  4359  000F0A  D7FA               	bra	u2037
  4360  000F0C  EF4C  F007         	goto	l302
  4361  000F10                     l307:
  4362  000F10  0012               	return		;funcret
  4363  000F12                     __end_of_connected_to_ap:
  4364                           	callstack 0
  4365                           
  4366 ;; *************** function _new_line *****************
  4367 ;; Defined at:
  4368 ;;		line 416 in file "newmain.c"
  4369 ;; Parameters:    Size  Location     Type
  4370 ;;		None
  4371 ;; Auto vars:     Size  Location     Type
  4372 ;;		None
  4373 ;; Return value:  Size  Location     Type
  4374 ;;                  1    wreg      void 
  4375 ;; Registers used:
  4376 ;;		wreg, status,2, cstack
  4377 ;; Tracked objects:
  4378 ;;		On entry : 0/0
  4379 ;;		On exit  : 0/0
  4380 ;;		Unchanged: 0/0
  4381 ;; Data sizes:     COMRAM   BANK0   BANK1   BANK2   BANK3   BANK4   BANK5   BANK6   BANK7   BANK8   BANK9  BANK10  BANK1
      +1  BANK12  BANK13  BANK14  BANK15
  4382 ;;      Params:         0       0       0       0       0       0       0       0       0       0       0       0       
      +0       0       0       0       0
  4383 ;;      Locals:         0       0       0       0       0       0       0       0       0       0       0       0       
      +0       0       0       0       0
  4384 ;;      Temps:          0       0       0       0       0       0       0       0       0       0       0       0       
      +0       0       0       0       0
  4385 ;;      Totals:         0       0       0       0       0       0       0       0       0       0       0       0       
      +0       0       0       0       0
  4386 ;;Total ram usage:        0 bytes
  4387 ;; Hardware stack levels used:    1
  4388 ;; Hardware stack levels required when called:    3
  4389 ;; This function calls:
  4390 ;;		_uart_char_write
  4391 ;; This function is called by:
  4392 ;;		_connected_to_ap
  4393 ;;		_send_data_direct
  4394 ;;		_check_webpage_request_2
  4395 ;; This function uses a non-reentrant model
  4396 ;;
  4397                           
  4398                           	psect	text22
  4399  001514                     __ptext22:
  4400                           	callstack 0
  4401  001514                     _new_line:
  4402                           	callstack 25
  4403  001514                     
  4404                           ;newmain.c: 418: uart_char_write(0x0D);
  4405  001514  0E0D               	movlw	13
  4406  001516  EC14  F00A         	call	_uart_char_write
  4407                           
  4408                           ;newmain.c: 419: uart_char_write(0x0A);
  4409  00151A  0E0A               	movlw	10
  4410  00151C  EC14  F00A         	call	_uart_char_write
  4411  001520  0012               	return		;funcret
  4412  001522                     __end_of_new_line:
  4413                           	callstack 0
  4414                           
  4415 ;; *************** function _check_connected_ap *****************
  4416 ;; Defined at:
  4417 ;;		line 660 in file "newmain.c"
  4418 ;; Parameters:    Size  Location     Type
  4419 ;;		None
  4420 ;; Auto vars:     Size  Location     Type
  4421 ;;		None
  4422 ;; Return value:  Size  Location     Type
  4423 ;;                  1    wreg      void 
  4424 ;; Registers used:
  4425 ;;		wreg, fsr0l, fsr0h, fsr2l, fsr2h, status,2, status,0, tblptrl, tblptrh, tblptru, cstack
  4426 ;; Tracked objects:
  4427 ;;		On entry : 0/0
  4428 ;;		On exit  : 0/0
  4429 ;;		Unchanged: 0/0
  4430 ;; Data sizes:     COMRAM   BANK0   BANK1   BANK2   BANK3   BANK4   BANK5   BANK6   BANK7   BANK8   BANK9  BANK10  BANK1
      +1  BANK12  BANK13  BANK14  BANK15
  4431 ;;      Params:         0       0       0       0       0       0       0       0       0       0       0       0       
      +0       0       0       0       0
  4432 ;;      Locals:         0       0       0       0       0       0       0       0       0       0       0       0       
      +0       0       0       0       0
  4433 ;;      Temps:          0       0       0       0       0       0       0       0       0       0       0       0       
      +0       0       0       0       0
  4434 ;;      Totals:         0       0       0       0       0       0       0       0       0       0       0       0       
      +0       0       0       0       0
  4435 ;;Total ram usage:        0 bytes
  4436 ;; Hardware stack levels used:    1
  4437 ;; Hardware stack levels required when called:    4
  4438 ;; This function calls:
  4439 ;;		_UART_Write_AT
  4440 ;;		_response_success
  4441 ;; This function is called by:
  4442 ;;		_WiFi_Config
  4443 ;; This function uses a non-reentrant model
  4444 ;;
  4445                           
  4446                           	psect	text23
  4447  0013EA                     __ptext23:
  4448                           	callstack 0
  4449  0013EA                     _check_connected_ap:
  4450                           	callstack 25
  4451  0013EA                     
  4452                           ;newmain.c: 666: UART_Write_AT("AT+CWJAP=?");
  4453  0013EA  0E74               	movlw	low STR_21
  4454  0013EC  6E09               	movwf	UART_Write_AT@_data^0,c
  4455  0013EE  0EBF               	movlw	high STR_21
  4456  0013F0  6E0A               	movwf	(UART_Write_AT@_data+1)^0,c
  4457  0013F2  EC22  F00A         	call	_UART_Write_AT	;wreg free
  4458  0013F6                     l2642:
  4459  0013F6  ECAA  F004         	call	_response_success	;wreg free
  4460  0013FA  06E8               	decf	wreg,f,c
  4461  0013FC  A4D8               	btfss	status,2,c
  4462  0013FE  EF03  F00A         	goto	u1381
  4463  001402  EF05  F00A         	goto	u1380
  4464  001406                     u1381:
  4465  001406  EFFB  F009         	goto	l2642
  4466  00140A                     u1380:
  4467  00140A  0012               	return		;funcret
  4468  00140C                     __end_of_check_connected_ap:
  4469                           	callstack 0
  4470                           
  4471 ;; *************** function _ap_and_station_mode *****************
  4472 ;; Defined at:
  4473 ;;		line 592 in file "newmain.c"
  4474 ;; Parameters:    Size  Location     Type
  4475 ;;		None
  4476 ;; Auto vars:     Size  Location     Type
  4477 ;;		None
  4478 ;; Return value:  Size  Location     Type
  4479 ;;                  1    wreg      void 
  4480 ;; Registers used:
  4481 ;;		wreg, fsr0l, fsr0h, fsr2l, fsr2h, status,2, status,0, tblptrl, tblptrh, tblptru, cstack
  4482 ;; Tracked objects:
  4483 ;;		On entry : 0/0
  4484 ;;		On exit  : 0/0
  4485 ;;		Unchanged: 0/0
  4486 ;; Data sizes:     COMRAM   BANK0   BANK1   BANK2   BANK3   BANK4   BANK5   BANK6   BANK7   BANK8   BANK9  BANK10  BANK1
      +1  BANK12  BANK13  BANK14  BANK15
  4487 ;;      Params:         0       0       0       0       0       0       0       0       0       0       0       0       
      +0       0       0       0       0
  4488 ;;      Locals:         0       0       0       0       0       0       0       0       0       0       0       0       
      +0       0       0       0       0
  4489 ;;      Temps:          2       0       0       0       0       0       0       0       0       0       0       0       
      +0       0       0       0       0
  4490 ;;      Totals:         2       0       0       0       0       0       0       0       0       0       0       0       
      +0       0       0       0       0
  4491 ;;Total ram usage:        2 bytes
  4492 ;; Hardware stack levels used:    1
  4493 ;; Hardware stack levels required when called:    4
  4494 ;; This function calls:
  4495 ;;		_UART_Write_AT
  4496 ;;		_response_success
  4497 ;; This function is called by:
  4498 ;;		_WiFi_Config
  4499 ;; This function uses a non-reentrant model
  4500 ;;
  4501                           
  4502                           	psect	text24
  4503  001306                     __ptext24:
  4504                           	callstack 0
  4505  001306                     _ap_and_station_mode:
  4506                           	callstack 25
  4507  001306                     
  4508                           ;newmain.c: 597: UART_Write_AT("AT+CWMODE=3");
  4509  001306  0E51               	movlw	low STR_17
  4510  001308  6E09               	movwf	UART_Write_AT@_data^0,c
  4511  00130A  0EBF               	movlw	high STR_17
  4512  00130C  6E0A               	movwf	(UART_Write_AT@_data+1)^0,c
  4513  00130E  EC22  F00A         	call	_UART_Write_AT	;wreg free
  4514  001312                     l2610:
  4515  001312  ECAA  F004         	call	_response_success	;wreg free
  4516  001316  06E8               	decf	wreg,f,c
  4517  001318  A4D8               	btfss	status,2,c
  4518  00131A  EF91  F009         	goto	u1351
  4519  00131E  EF93  F009         	goto	u1350
  4520  001322                     u1351:
  4521  001322  EF89  F009         	goto	l2610
  4522  001326                     u1350:
  4523  001326                     
  4524                           ;newmain.c: 599: _delay((unsigned long)((1000)*(8000000/4000.0)));
  4525  001326  0E0B               	movlw	11
  4526  001328  6E18               	movwf	(??_ap_and_station_mode+1)^0,c
  4527  00132A  0E26               	movlw	38
  4528  00132C  6E17               	movwf	??_ap_and_station_mode^0,c
  4529  00132E  0E5E               	movlw	94
  4530  001330                     u2047:
  4531  001330  2EE8               	decfsz	wreg,f,c
  4532  001332  D7FE               	bra	u2047
  4533  001334  2E17               	decfsz	??_ap_and_station_mode^0,f,c
  4534  001336  D7FC               	bra	u2047
  4535  001338  2E18               	decfsz	(??_ap_and_station_mode+1)^0,f,c
  4536  00133A  D7FA               	bra	u2047
  4537  00133C  0012               	return		;funcret
  4538  00133E                     __end_of_ap_and_station_mode:
  4539                           	callstack 0
  4540                           
  4541 ;; *************** function _response_success *****************
  4542 ;; Defined at:
  4543 ;;		line 518 in file "newmain.c"
  4544 ;; Parameters:    Size  Location     Type
  4545 ;;		None
  4546 ;; Auto vars:     Size  Location     Type
  4547 ;;  result          1   21[COMRAM] unsigned char 
  4548 ;; Return value:  Size  Location     Type
  4549 ;;                  1    wreg      unsigned char 
  4550 ;; Registers used:
  4551 ;;		wreg, fsr0l, fsr0h, fsr2l, fsr2h, status,2, status,0, tblptrl, tblptrh, tblptru, cstack
  4552 ;; Tracked objects:
  4553 ;;		On entry : 0/0
  4554 ;;		On exit  : 0/0
  4555 ;;		Unchanged: 0/0
  4556 ;; Data sizes:     COMRAM   BANK0   BANK1   BANK2   BANK3   BANK4   BANK5   BANK6   BANK7   BANK8   BANK9  BANK10  BANK1
      +1  BANK12  BANK13  BANK14  BANK15
  4557 ;;      Params:         0       0       0       0       0       0       0       0       0       0       0       0       
      +0       0       0       0       0
  4558 ;;      Locals:         1       0       0       0       0       0       0       0       0       0       0       0       
      +0       0       0       0       0
  4559 ;;      Temps:          0       0       0       0       0       0       0       0       0       0       0       0       
      +0       0       0       0       0
  4560 ;;      Totals:         1       0       0       0       0       0       0       0       0       0       0       0       
      +0       0       0       0       0
  4561 ;;Total ram usage:        1 bytes
  4562 ;; Hardware stack levels used:    1
  4563 ;; Hardware stack levels required when called:    3
  4564 ;; This function calls:
  4565 ;;		_find_string
  4566 ;;		_reset_buff
  4567 ;;		_uart_read_int
  4568 ;; This function is called by:
  4569 ;;		_disconnect_ap
  4570 ;;		_ap_and_station_mode
  4571 ;;		_mult_connection
  4572 ;;		_connected_to_ap
  4573 ;;		_check_connected_ap
  4574 ;;		_WiFi_Config
  4575 ;;		_check_ok
  4576 ;;		_single_conection
  4577 ;;		_config_server
  4578 ;;		_check_webpage_request
  4579 ;;		_check_webpage_request_2
  4580 ;; This function uses a non-reentrant model
  4581 ;;
  4582                           
  4583                           	psect	text25
  4584  000954                     __ptext25:
  4585                           	callstack 0
  4586  000954                     _response_success:
  4587                           	callstack 24
  4588  000954                     
  4589                           ;newmain.c: 522: char result;;newmain.c: 523: uart_read_int();
  4590  000954  EC49  F00A         	call	_uart_read_int	;wreg free
  4591  000958                     l2386:
  4592  000958  503A               	movf	_data_ready^0,w,c
  4593  00095A  B4D8               	btfsc	status,2,c
  4594  00095C  EFB2  F004         	goto	u1021
  4595  000960  EFB4  F004         	goto	u1020
  4596  000964                     u1021:
  4597  000964  EFAC  F004         	goto	l2386
  4598  000968                     u1020:
  4599  000968                     
  4600                           ;newmain.c: 525: };;newmain.c: 527: if(find_string(rx_buff,"ok") == 1){result = OK;}
  4601  000968  0E5A               	movlw	low _rx_buff
  4602  00096A  6E07               	movwf	find_string@string^0,c
  4603  00096C  0E02               	movlw	high _rx_buff
  4604  00096E  6E08               	movwf	(find_string@string+1)^0,c
  4605  000970  0EF3               	movlw	low STR_3
  4606  000972  6E09               	movwf	find_string@string_find^0,c
  4607  000974  0EBF               	movlw	high STR_3
  4608  000976  6E0A               	movwf	(find_string@string_find+1)^0,c
  4609  000978  EC35  F004         	call	_find_string	;wreg free
  4610  00097C  06E8               	decf	wreg,f,c
  4611  00097E  A4D8               	btfss	status,2,c
  4612  000980  EFC4  F004         	goto	u1031
  4613  000984  EFC6  F004         	goto	u1030
  4614  000988                     u1031:
  4615  000988  EFCA  F004         	goto	l2392
  4616  00098C                     u1030:
  4617  00098C  0E01               	movlw	1
  4618  00098E  6E16               	movwf	response_success@result^0,c
  4619  000990  EF0E  F005         	goto	l2406
  4620  000994                     l2392:
  4621                           
  4622                           ;newmain.c: 528: else if(find_string(rx_buff,"no change") == 1){result = no_change;}
  4623  000994  0E5A               	movlw	low _rx_buff
  4624  000996  6E07               	movwf	find_string@string^0,c
  4625  000998  0E02               	movlw	high _rx_buff
  4626  00099A  6E08               	movwf	(find_string@string+1)^0,c
  4627  00099C  0E89               	movlw	low STR_4
  4628  00099E  6E09               	movwf	find_string@string_find^0,c
  4629  0009A0  0EBF               	movlw	high STR_4
  4630  0009A2  6E0A               	movwf	(find_string@string_find+1)^0,c
  4631  0009A4  EC35  F004         	call	_find_string	;wreg free
  4632  0009A8  06E8               	decf	wreg,f,c
  4633  0009AA  A4D8               	btfss	status,2,c
  4634  0009AC  EFDA  F004         	goto	u1041
  4635  0009B0  EFDC  F004         	goto	u1040
  4636  0009B4                     u1041:
  4637  0009B4  EFE0  F004         	goto	l2396
  4638  0009B8                     u1040:
  4639  0009B8  0E03               	movlw	3
  4640  0009BA  6E16               	movwf	response_success@result^0,c
  4641  0009BC  EF0E  F005         	goto	l2406
  4642  0009C0                     l2396:
  4643                           
  4644                           ;newmain.c: 529: else if(find_string(rx_buff,"ready") == 1){result = ready;}
  4645  0009C0  0E5A               	movlw	low _rx_buff
  4646  0009C2  6E07               	movwf	find_string@string^0,c
  4647  0009C4  0E02               	movlw	high _rx_buff
  4648  0009C6  6E08               	movwf	(find_string@string+1)^0,c
  4649  0009C8  0ED7               	movlw	low STR_5
  4650  0009CA  6E09               	movwf	find_string@string_find^0,c
  4651  0009CC  0EBF               	movlw	high STR_5
  4652  0009CE  6E0A               	movwf	(find_string@string_find+1)^0,c
  4653  0009D0  EC35  F004         	call	_find_string	;wreg free
  4654  0009D4  06E8               	decf	wreg,f,c
  4655  0009D6  A4D8               	btfss	status,2,c
  4656  0009D8  EFF0  F004         	goto	u1051
  4657  0009DC  EFF2  F004         	goto	u1050
  4658  0009E0                     u1051:
  4659  0009E0  EFF6  F004         	goto	l2400
  4660  0009E4                     u1050:
  4661  0009E4  0E02               	movlw	2
  4662  0009E6  6E16               	movwf	response_success@result^0,c
  4663  0009E8  EF0E  F005         	goto	l2406
  4664  0009EC                     l2400:
  4665                           
  4666                           ;newmain.c: 530: else if(find_string(rx_buff,">") == 1){result = send_ready;}
  4667  0009EC  0E5A               	movlw	low _rx_buff
  4668  0009EE  6E07               	movwf	find_string@string^0,c
  4669  0009F0  0E02               	movlw	high _rx_buff
  4670  0009F2  6E08               	movwf	(find_string@string+1)^0,c
  4671  0009F4  0EFC               	movlw	low STR_6
  4672  0009F6  6E09               	movwf	find_string@string_find^0,c
  4673  0009F8  0EBF               	movlw	high STR_6
  4674  0009FA  6E0A               	movwf	(find_string@string_find+1)^0,c
  4675  0009FC  EC35  F004         	call	_find_string	;wreg free
  4676  000A00  06E8               	decf	wreg,f,c
  4677  000A02  A4D8               	btfss	status,2,c
  4678  000A04  EF06  F005         	goto	u1061
  4679  000A08  EF08  F005         	goto	u1060
  4680  000A0C                     u1061:
  4681  000A0C  EF0C  F005         	goto	l2404
  4682  000A10                     u1060:
  4683  000A10  0E04               	movlw	4
  4684  000A12  6E16               	movwf	response_success@result^0,c
  4685  000A14  EF0E  F005         	goto	l2406
  4686  000A18                     l2404:
  4687                           
  4688                           ;newmain.c: 531: else result = 0;
  4689  000A18  0E00               	movlw	0
  4690  000A1A  6E16               	movwf	response_success@result^0,c
  4691  000A1C                     l2406:
  4692                           
  4693                           ;newmain.c: 533: reset_buff();
  4694  000A1C  ECBB  F009         	call	_reset_buff	;wreg free
  4695  000A20                     
  4696                           ;newmain.c: 535: return result;
  4697  000A20  5016               	movf	response_success@result^0,w,c
  4698  000A22  0012               	return		;funcret
  4699  000A24                     __end_of_response_success:
  4700                           	callstack 0
  4701                           
  4702 ;; *************** function _uart_read_int *****************
  4703 ;; Defined at:
  4704 ;;		line 281 in file "newmain.c"
  4705 ;; Parameters:    Size  Location     Type
  4706 ;;		None
  4707 ;; Auto vars:     Size  Location     Type
  4708 ;;		None
  4709 ;; Return value:  Size  Location     Type
  4710 ;;                  2  206[None  ] int 
  4711 ;; Registers used:
  4712 ;;		wreg, status,2
  4713 ;; Tracked objects:
  4714 ;;		On entry : 0/0
  4715 ;;		On exit  : 0/0
  4716 ;;		Unchanged: 0/0
  4717 ;; Data sizes:     COMRAM   BANK0   BANK1   BANK2   BANK3   BANK4   BANK5   BANK6   BANK7   BANK8   BANK9  BANK10  BANK1
      +1  BANK12  BANK13  BANK14  BANK15
  4718 ;;      Params:         0       0       0       0       0       0       0       0       0       0       0       0       
      +0       0       0       0       0
  4719 ;;      Locals:         0       0       0       0       0       0       0       0       0       0       0       0       
      +0       0       0       0       0
  4720 ;;      Temps:          0       0       0       0       0       0       0       0       0       0       0       0       
      +0       0       0       0       0
  4721 ;;      Totals:         0       0       0       0       0       0       0       0       0       0       0       0       
      +0       0       0       0       0
  4722 ;;Total ram usage:        0 bytes
  4723 ;; Hardware stack levels used:    1
  4724 ;; Hardware stack levels required when called:    1
  4725 ;; This function calls:
  4726 ;;		Nothing
  4727 ;; This function is called by:
  4728 ;;		_response_success
  4729 ;;		_Get_IP_MAC
  4730 ;; This function uses a non-reentrant model
  4731 ;;
  4732                           
  4733                           	psect	text26
  4734  001492                     __ptext26:
  4735                           	callstack 0
  4736  001492                     _uart_read_int:
  4737                           	callstack 25
  4738  001492                     
  4739                           ;newmain.c: 283: BRGH = 1;
  4740  001492  84AC               	bsf	4012,2,c	;volatile
  4741  001494                     
  4742                           ;newmain.c: 284: SPBRG = 51;
  4743  001494  0E33               	movlw	51
  4744  001496  6EAF               	movwf	175,c	;volatile
  4745  001498                     
  4746                           ;newmain.c: 285: SYNC = 0;
  4747  001498  98AC               	bcf	4012,4,c	;volatile
  4748  00149A                     
  4749                           ;newmain.c: 286: SPEN = 1;
  4750  00149A  8EAB               	bsf	4011,7,c	;volatile
  4751  00149C                     
  4752                           ;newmain.c: 287: TRISC6 = 1;
  4753  00149C  8C94               	bsf	3988,6,c	;volatile
  4754  00149E                     
  4755                           ;newmain.c: 288: TRISC7 = 1;
  4756  00149E  8E94               	bsf	3988,7,c	;volatile
  4757  0014A0                     
  4758                           ;newmain.c: 289: RCIE = 1;
  4759  0014A0  8A9D               	bsf	3997,5,c	;volatile
  4760  0014A2                     
  4761                           ;newmain.c: 290: PEIE = 1;
  4762  0014A2  8CF2               	bsf	4082,6,c	;volatile
  4763  0014A4                     
  4764                           ;newmain.c: 291: GIE = 1;
  4765  0014A4  8EF2               	bsf	4082,7,c	;volatile
  4766  0014A6                     
  4767                           ;newmain.c: 292: CREN = 1;
  4768  0014A6  88AB               	bsf	4011,4,c	;volatile
  4769  0014A8  0012               	return		;funcret
  4770  0014AA                     __end_of_uart_read_int:
  4771                           	callstack 0
  4772                           
  4773 ;; *************** function _reset_buff *****************
  4774 ;; Defined at:
  4775 ;;		line 423 in file "newmain.c"
  4776 ;; Parameters:    Size  Location     Type
  4777 ;;		None
  4778 ;; Auto vars:     Size  Location     Type
  4779 ;;		None
  4780 ;; Return value:  Size  Location     Type
  4781 ;;                  1    wreg      void 
  4782 ;; Registers used:
  4783 ;;		wreg, fsr2l, fsr2h, status,2, status,0, cstack
  4784 ;; Tracked objects:
  4785 ;;		On entry : 0/0
  4786 ;;		On exit  : 0/0
  4787 ;;		Unchanged: 0/0
  4788 ;; Data sizes:     COMRAM   BANK0   BANK1   BANK2   BANK3   BANK4   BANK5   BANK6   BANK7   BANK8   BANK9  BANK10  BANK1
      +1  BANK12  BANK13  BANK14  BANK15
  4789 ;;      Params:         0       0       0       0       0       0       0       0       0       0       0       0       
      +0       0       0       0       0
  4790 ;;      Locals:         0       0       0       0       0       0       0       0       0       0       0       0       
      +0       0       0       0       0
  4791 ;;      Temps:          0       0       0       0       0       0       0       0       0       0       0       0       
      +0       0       0       0       0
  4792 ;;      Totals:         0       0       0       0       0       0       0       0       0       0       0       0       
      +0       0       0       0       0
  4793 ;;Total ram usage:        0 bytes
  4794 ;; Hardware stack levels used:    1
  4795 ;; Hardware stack levels required when called:    2
  4796 ;; This function calls:
  4797 ;;		_memset
  4798 ;; This function is called by:
  4799 ;;		_response_success
  4800 ;;		_WiFi_Config
  4801 ;;		_send_data_direct
  4802 ;;		_send_req_data
  4803 ;;		_Get_IP_MAC
  4804 ;;		_config_server
  4805 ;;		_check_webpage_request
  4806 ;;		_send_adc_value
  4807 ;;		_check_webpage_request_2
  4808 ;; This function uses a non-reentrant model
  4809 ;;
  4810                           
  4811                           	psect	text27
  4812  001376                     __ptext27:
  4813                           	callstack 0
  4814  001376                     _reset_buff:
  4815                           	callstack 26
  4816  001376                     
  4817                           ;newmain.c: 425: memset(rx_buff,0,data_len);
  4818  001376  0E5A               	movlw	low _rx_buff
  4819  001378  6E03               	movwf	memset@p1^0,c
  4820  00137A  0E02               	movlw	high _rx_buff
  4821  00137C  6E04               	movwf	(memset@p1+1)^0,c
  4822  00137E  0E00               	movlw	0
  4823  001380  6E06               	movwf	(memset@c+1)^0,c
  4824  001382  0E00               	movlw	0
  4825  001384  6E05               	movwf	memset@c^0,c
  4826  001386  C037  F007         	movff	_data_len,memset@n
  4827  00138A  C038  F008         	movff	_data_len+1,memset@n+1
  4828  00138E  EC9F  F009         	call	_memset	;wreg free
  4829  001392                     
  4830                           ;newmain.c: 428: data_ready = 0;
  4831  001392  0E00               	movlw	0
  4832  001394  6E3A               	movwf	_data_ready^0,c
  4833  001396                     
  4834                           ;newmain.c: 429: data_len=0;
  4835  001396  0E00               	movlw	0
  4836  001398  6E38               	movwf	(_data_len+1)^0,c
  4837  00139A  0E00               	movlw	0
  4838  00139C  6E37               	movwf	_data_len^0,c
  4839  00139E  0012               	return		;funcret
  4840  0013A0                     __end_of_reset_buff:
  4841                           	callstack 0
  4842                           
  4843 ;; *************** function _memset *****************
  4844 ;; Defined at:
  4845 ;;		line 8 in file "C:\Program Files\Microchip\xc8\v2.31\pic\sources\c90\common\memset.c"
  4846 ;; Parameters:    Size  Location     Type
  4847 ;;  p1              2    2[COMRAM] PTR void 
  4848 ;;		 -> connection_id(6), rx_buff(500), 
  4849 ;;  c               2    4[COMRAM] int 
  4850 ;;  n               2    6[COMRAM] unsigned int 
  4851 ;; Auto vars:     Size  Location     Type
  4852 ;;  p               2    8[COMRAM] PTR unsigned char 
  4853 ;;		 -> connection_id(6), rx_buff(500), 
  4854 ;; Return value:  Size  Location     Type
  4855 ;;                  2    2[COMRAM] PTR void 
  4856 ;; Registers used:
  4857 ;;		wreg, fsr2l, fsr2h, status,2, status,0
  4858 ;; Tracked objects:
  4859 ;;		On entry : 0/0
  4860 ;;		On exit  : 0/0
  4861 ;;		Unchanged: 0/0
  4862 ;; Data sizes:     COMRAM   BANK0   BANK1   BANK2   BANK3   BANK4   BANK5   BANK6   BANK7   BANK8   BANK9  BANK10  BANK1
      +1  BANK12  BANK13  BANK14  BANK15
  4863 ;;      Params:         6       0       0       0       0       0       0       0       0       0       0       0       
      +0       0       0       0       0
  4864 ;;      Locals:         2       0       0       0       0       0       0       0       0       0       0       0       
      +0       0       0       0       0
  4865 ;;      Temps:          0       0       0       0       0       0       0       0       0       0       0       0       
      +0       0       0       0       0
  4866 ;;      Totals:         8       0       0       0       0       0       0       0       0       0       0       0       
      +0       0       0       0       0
  4867 ;;Total ram usage:        8 bytes
  4868 ;; Hardware stack levels used:    1
  4869 ;; Hardware stack levels required when called:    1
  4870 ;; This function calls:
  4871 ;;		Nothing
  4872 ;; This function is called by:
  4873 ;;		_reset_buff
  4874 ;;		_WiFi_Config
  4875 ;;		_check_webpage_request_2
  4876 ;; This function uses a non-reentrant model
  4877 ;;
  4878                           
  4879                           	psect	text28
  4880  00133E                     __ptext28:
  4881                           	callstack 0
  4882  00133E                     _memset:
  4883                           	callstack 26
  4884  00133E  C003  F009         	movff	memset@p1,memset@p
  4885  001342  C004  F00A         	movff	memset@p1+1,memset@p+1
  4886  001346  EFAD  F009         	goto	l2286
  4887  00134A                     l2282:
  4888  00134A  C009  FFD9         	movff	memset@p,fsr2l
  4889  00134E  C00A  FFDA         	movff	memset@p+1,fsr2h
  4890  001352  C005  FFDF         	movff	memset@c,indf2
  4891  001356  4A09               	infsnz	memset@p^0,f,c
  4892  001358  2A0A               	incf	(memset@p+1)^0,f,c
  4893  00135A                     l2286:
  4894  00135A  0607               	decf	memset@n^0,f,c
  4895  00135C  A0D8               	btfss	status,0,c
  4896  00135E  0608               	decf	(memset@n+1)^0,f,c
  4897  001360  2807               	incf	memset@n^0,w,c
  4898  001362  E106               	bnz	u901
  4899  001364  2808               	incf	(memset@n+1)^0,w,c
  4900  001366  A4D8               	btfss	status,2,c
  4901  001368  EFB8  F009         	goto	u901
  4902  00136C  EFBA  F009         	goto	u900
  4903  001370                     u901:
  4904  001370  EFA5  F009         	goto	l2282
  4905  001374                     u900:
  4906  001374  0012               	return		;funcret
  4907  001376                     __end_of_memset:
  4908                           	callstack 0
  4909                           
  4910 ;; *************** function _find_string *****************
  4911 ;; Defined at:
  4912 ;;		line 444 in file "newmain.c"
  4913 ;; Parameters:    Size  Location     Type
  4914 ;;  string          2    6[COMRAM] PTR unsigned char 
  4915 ;;		 -> send_req_data@data_of_direction(10), rx_buff(500), 
  4916 ;;  string_find     2    8[COMRAM] PTR unsigned char 
  4917 ;;		 -> STR_52(5), STR_51(6), STR_50(5), STR_49(3), 
  4918 ;;		 -> STR_38(5), STR_31(5), STR_23(3), STR_6(2), 
  4919 ;;		 -> STR_5(6), STR_4(10), STR_3(3), 
  4920 ;; Auto vars:     Size  Location     Type
  4921 ;;  index_string    2   19[COMRAM] unsigned int 
  4922 ;;  mathced         2   17[COMRAM] unsigned int 
  4923 ;;  length_of_st    2   15[COMRAM] unsigned int 
  4924 ;;  length_of_st    2   13[COMRAM] unsigned int 
  4925 ;; Return value:  Size  Location     Type
  4926 ;;                  1    wreg      unsigned char 
  4927 ;; Registers used:
  4928 ;;		wreg, fsr0l, fsr0h, fsr2l, fsr2h, status,2, status,0, tblptrl, tblptrh, tblptru, cstack
  4929 ;; Tracked objects:
  4930 ;;		On entry : 0/0
  4931 ;;		On exit  : 0/0
  4932 ;;		Unchanged: 0/0
  4933 ;; Data sizes:     COMRAM   BANK0   BANK1   BANK2   BANK3   BANK4   BANK5   BANK6   BANK7   BANK8   BANK9  BANK10  BANK1
      +1  BANK12  BANK13  BANK14  BANK15
  4934 ;;      Params:         4       0       0       0       0       0       0       0       0       0       0       0       
      +0       0       0       0       0
  4935 ;;      Locals:         8       0       0       0       0       0       0       0       0       0       0       0       
      +0       0       0       0       0
  4936 ;;      Temps:          3       0       0       0       0       0       0       0       0       0       0       0       
      +0       0       0       0       0
  4937 ;;      Totals:        15       0       0       0       0       0       0       0       0       0       0       0       
      +0       0       0       0       0
  4938 ;;Total ram usage:       15 bytes
  4939 ;; Hardware stack levels used:    1
  4940 ;; Hardware stack levels required when called:    2
  4941 ;; This function calls:
  4942 ;;		_strlen
  4943 ;; This function is called by:
  4944 ;;		_response_success
  4945 ;;		_send_req_data
  4946 ;;		_check_webpage_request
  4947 ;;		_check_webpage_request_2
  4948 ;;		_send_data_when_ordered
  4949 ;; This function uses a non-reentrant model
  4950 ;;
  4951                           
  4952                           	psect	text29
  4953  00086A                     __ptext29:
  4954                           	callstack 0
  4955  00086A                     _find_string:
  4956                           	callstack 24
  4957  00086A                     
  4958                           ;newmain.c: 446: unsigned int mathced = 0;
  4959  00086A  0E00               	movlw	0
  4960  00086C  6E13               	movwf	(find_string@mathced+1)^0,c
  4961  00086E  0E00               	movlw	0
  4962  000870  6E12               	movwf	find_string@mathced^0,c
  4963                           
  4964                           ;newmain.c: 448: unsigned int length_of_string=0;
  4965  000872  0E00               	movlw	0
  4966  000874  6E0F               	movwf	(find_string@length_of_string+1)^0,c
  4967  000876  0E00               	movlw	0
  4968  000878  6E0E               	movwf	find_string@length_of_string^0,c
  4969                           
  4970                           ;newmain.c: 449: unsigned int length_of_string_find=0;
  4971  00087A  0E00               	movlw	0
  4972  00087C  6E11               	movwf	(find_string@length_of_string_find+1)^0,c
  4973  00087E  0E00               	movlw	0
  4974  000880  6E10               	movwf	find_string@length_of_string_find^0,c
  4975  000882                     
  4976                           ;newmain.c: 451: length_of_string = strlen(string);
  4977  000882  C007  F003         	movff	find_string@string,strlen@s
  4978  000886  C008  F004         	movff	find_string@string+1,strlen@s+1
  4979  00088A  ECBB  F008         	call	_strlen	;wreg free
  4980  00088E  C003  F00E         	movff	?_strlen,find_string@length_of_string
  4981  000892  C004  F00F         	movff	?_strlen+1,find_string@length_of_string+1
  4982  000896                     
  4983                           ;newmain.c: 452: length_of_string_find = strlen(string_find);
  4984  000896  C009  F003         	movff	find_string@string_find,strlen@s
  4985  00089A  C00A  F004         	movff	find_string@string_find+1,strlen@s+1
  4986  00089E  ECBB  F008         	call	_strlen	;wreg free
  4987  0008A2  C003  F010         	movff	?_strlen,find_string@length_of_string_find
  4988  0008A6  C004  F011         	movff	?_strlen+1,find_string@length_of_string_find+1
  4989  0008AA                     
  4990                           ;newmain.c: 455: if(length_of_string_find > length_of_string)
  4991  0008AA  5010               	movf	find_string@length_of_string_find^0,w,c
  4992  0008AC  5C0E               	subwf	find_string@length_of_string^0,w,c
  4993  0008AE  5011               	movf	(find_string@length_of_string_find+1)^0,w,c
  4994  0008B0  580F               	subwfb	(find_string@length_of_string+1)^0,w,c
  4995  0008B2  B0D8               	btfsc	status,0,c
  4996  0008B4  EF5E  F004         	goto	u931
  4997  0008B8  EF60  F004         	goto	u930
  4998  0008BC                     u931:
  4999  0008BC  EF63  F004         	goto	l2350
  5000  0008C0                     u930:
  5001  0008C0                     l2346:
  5002                           
  5003                           ;newmain.c: 456: {;newmain.c: 457: return 0;
  5004  0008C0  0E00               	movlw	0
  5005  0008C2  EFA9  F004         	goto	l243
  5006  0008C6                     l2350:
  5007                           
  5008                           ;newmain.c: 458: };newmain.c: 460: for(index_string=0; index_string < length_of_string; 
      +                          index_string++)
  5009  0008C6  0E00               	movlw	0
  5010  0008C8  6E15               	movwf	(find_string@index_string+1)^0,c
  5011  0008CA  0E00               	movlw	0
  5012  0008CC  6E14               	movwf	find_string@index_string^0,c
  5013  0008CE  EF9C  F004         	goto	l2366
  5014  0008D2                     l2352:
  5015                           
  5016                           ;newmain.c: 461: {;newmain.c: 462: if(string[index_string] == string_find[mathced])
  5017  0008D2  5014               	movf	find_string@index_string^0,w,c
  5018  0008D4  2407               	addwf	find_string@string^0,w,c
  5019  0008D6  6ED9               	movwf	fsr2l,c
  5020  0008D8  5015               	movf	(find_string@index_string+1)^0,w,c
  5021  0008DA  2008               	addwfc	(find_string@string+1)^0,w,c
  5022  0008DC  6EDA               	movwf	fsr2h,c
  5023  0008DE  50DF               	movf	indf2,w,c
  5024  0008E0  6E0B               	movwf	??_find_string^0,c
  5025  0008E2  5012               	movf	find_string@mathced^0,w,c
  5026  0008E4  2409               	addwf	find_string@string_find^0,w,c
  5027  0008E6  6E0C               	movwf	(??_find_string+1)^0,c
  5028  0008E8  5013               	movf	(find_string@mathced+1)^0,w,c
  5029  0008EA  200A               	addwfc	(find_string@string_find+1)^0,w,c
  5030  0008EC  6E0D               	movwf	(??_find_string+2)^0,c
  5031  0008EE  C00C  FFF6         	movff	??_find_string+1,tblptrl
  5032  0008F2  C00D  FFF7         	movff	??_find_string+2,tblptrh
  5033  0008F6                     	if	0	;tblptru may be non-zero
  5034  0008F6                     	endif
  5035  0008F6                     	if	0	;tblptru may be non-zero
  5036  0008F6                     	endif
  5037  0008F6  0008               	tblrd		*
  5038  0008F8  50F5               	movf	tablat,w,c
  5039  0008FA  180B               	xorwf	??_find_string^0,w,c
  5040  0008FC  A4D8               	btfss	status,2,c
  5041  0008FE  EF83  F004         	goto	u941
  5042  000902  EF85  F004         	goto	u940
  5043  000906                     u941:
  5044  000906  EF96  F004         	goto	l2362
  5045  00090A                     u940:
  5046  00090A                     
  5047                           ;newmain.c: 463: {;newmain.c: 464: mathced++;
  5048  00090A  4A12               	infsnz	find_string@mathced^0,f,c
  5049  00090C  2A13               	incf	(find_string@mathced+1)^0,f,c
  5050  00090E                     
  5051                           ;newmain.c: 465: if(length_of_string_find == mathced)
  5052  00090E  5012               	movf	find_string@mathced^0,w,c
  5053  000910  1810               	xorwf	find_string@length_of_string_find^0,w,c
  5054  000912  E107               	bnz	u951
  5055  000914  5013               	movf	(find_string@mathced+1)^0,w,c
  5056  000916  1811               	xorwf	(find_string@length_of_string_find+1)^0,w,c
  5057  000918  A4D8               	btfss	status,2,c
  5058  00091A  EF91  F004         	goto	u951
  5059  00091E  EF93  F004         	goto	u950
  5060  000922                     u951:
  5061  000922  EF9A  F004         	goto	l2364
  5062  000926                     u950:
  5063  000926                     
  5064                           ;newmain.c: 466: {;newmain.c: 467: return 1;
  5065  000926  0E01               	movlw	1
  5066  000928  EFA9  F004         	goto	l243
  5067  00092C                     l2362:
  5068                           
  5069                           ;newmain.c: 470: else;newmain.c: 471: {;newmain.c: 472: mathced = 0;
  5070  00092C  0E00               	movlw	0
  5071  00092E  6E13               	movwf	(find_string@mathced+1)^0,c
  5072  000930  0E00               	movlw	0
  5073  000932  6E12               	movwf	find_string@mathced^0,c
  5074  000934                     l2364:
  5075  000934  4A14               	infsnz	find_string@index_string^0,f,c
  5076  000936  2A15               	incf	(find_string@index_string+1)^0,f,c
  5077  000938                     l2366:
  5078  000938  500E               	movf	find_string@length_of_string^0,w,c
  5079  00093A  5C14               	subwf	find_string@index_string^0,w,c
  5080  00093C  500F               	movf	(find_string@length_of_string+1)^0,w,c
  5081  00093E  5815               	subwfb	(find_string@index_string+1)^0,w,c
  5082  000940  A0D8               	btfss	status,0,c
  5083  000942  EFA5  F004         	goto	u961
  5084  000946  EFA7  F004         	goto	u960
  5085  00094A                     u961:
  5086  00094A  EF69  F004         	goto	l2352
  5087  00094E                     u960:
  5088  00094E  EF60  F004         	goto	l2346
  5089  000952                     l243:
  5090  000952  0012               	return		;funcret
  5091  000954                     __end_of_find_string:
  5092                           	callstack 0
  5093                           
  5094 ;; *************** function _strlen *****************
  5095 ;; Defined at:
  5096 ;;		line 4 in file "C:\Program Files\Microchip\xc8\v2.31\pic\sources\c90\common\strlen.c"
  5097 ;; Parameters:    Size  Location     Type
  5098 ;;  s               2    2[COMRAM] PTR const unsigned char 
  5099 ;;		 -> STR_52(5), STR_51(6), STR_50(5), STR_49(3), 
  5100 ;;		 -> STR_48(2), STR_47(6), send_req_data@data_of_direction(10), send_req_data@link_req(90), 
  5101 ;;		 -> STR_40(2), STR_39(6), STR_38(5), STR_33(2), 
  5102 ;;		 -> STR_32(6), STR_31(5), webpage_text2(6), adc_value_text(6), 
  5103 ;;		 -> webpage_text1(5), STR_23(3), STR_15(2), STR_14(9), 
  5104 ;;		 -> STR_13(2), STR_12(8), STR_11(2), STR_10(8), 
  5105 ;;		 -> STR_9(2), STR_8(7), STR_6(2), STR_5(6), 
  5106 ;;		 -> STR_4(10), STR_3(3), rx_buff(500), 
  5107 ;; Auto vars:     Size  Location     Type
  5108 ;;  cp              2    4[COMRAM] PTR const unsigned char 
  5109 ;;		 -> STR_52(5), STR_51(6), STR_50(5), STR_49(3), 
  5110 ;;		 -> STR_48(2), STR_47(6), send_req_data@data_of_direction(10), send_req_data@link_req(90), 
  5111 ;;		 -> STR_40(2), STR_39(6), STR_38(5), STR_33(2), 
  5112 ;;		 -> STR_32(6), STR_31(5), webpage_text2(6), adc_value_text(6), 
  5113 ;;		 -> webpage_text1(5), STR_23(3), STR_15(2), STR_14(9), 
  5114 ;;		 -> STR_13(2), STR_12(8), STR_11(2), STR_10(8), 
  5115 ;;		 -> STR_9(2), STR_8(7), STR_6(2), STR_5(6), 
  5116 ;;		 -> STR_4(10), STR_3(3), rx_buff(500), 
  5117 ;; Return value:  Size  Location     Type
  5118 ;;                  2    2[COMRAM] unsigned int 
  5119 ;; Registers used:
  5120 ;;		wreg, fsr0l, fsr0h, status,2, status,0, tblptrl, tblptrh, tblptru
  5121 ;; Tracked objects:
  5122 ;;		On entry : 0/0
  5123 ;;		On exit  : 0/0
  5124 ;;		Unchanged: 0/0
  5125 ;; Data sizes:     COMRAM   BANK0   BANK1   BANK2   BANK3   BANK4   BANK5   BANK6   BANK7   BANK8   BANK9  BANK10  BANK1
      +1  BANK12  BANK13  BANK14  BANK15
  5126 ;;      Params:         2       0       0       0       0       0       0       0       0       0       0       0       
      +0       0       0       0       0
  5127 ;;      Locals:         2       0       0       0       0       0       0       0       0       0       0       0       
      +0       0       0       0       0
  5128 ;;      Temps:          0       0       0       0       0       0       0       0       0       0       0       0       
      +0       0       0       0       0
  5129 ;;      Totals:         4       0       0       0       0       0       0       0       0       0       0       0       
      +0       0       0       0       0
  5130 ;;Total ram usage:        4 bytes
  5131 ;; Hardware stack levels used:    1
  5132 ;; Hardware stack levels required when called:    1
  5133 ;; This function calls:
  5134 ;;		Nothing
  5135 ;; This function is called by:
  5136 ;;		_find_string
  5137 ;;		_send_data_direct
  5138 ;;		_strstr
  5139 ;;		_get_size_data
  5140 ;;		_send_adc_value
  5141 ;; This function uses a non-reentrant model
  5142 ;;
  5143                           
  5144                           	psect	text30
  5145  001176                     __ptext30:
  5146                           	callstack 0
  5147  001176                     _strlen:
  5148                           	callstack 27
  5149  001176  C003  F005         	movff	strlen@s,strlen@cp
  5150  00117A  C004  F006         	movff	strlen@s+1,strlen@cp+1
  5151  00117E  EFC3  F008         	goto	l2292
  5152  001182                     l2290:
  5153  001182  4A05               	infsnz	strlen@cp^0,f,c
  5154  001184  2A06               	incf	(strlen@cp+1)^0,f,c
  5155  001186                     l2292:
  5156  001186  C005  FFF6         	movff	strlen@cp,tblptrl
  5157  00118A  C006  FFF7         	movff	strlen@cp+1,tblptrh
  5158  00118E  6AF8               	clrf	tblptru,c
  5159  001190  0E0F               	movlw	(high __ramtop+-1)
  5160  001192  64F7               	cpfsgt	tblptrh,c
  5161  001194  D003               	bra	u917
  5162  001196  0008               	tblrd		*
  5163  001198  50F5               	movf	tablat,w,c
  5164  00119A  D005               	bra	u910
  5165  00119C                     u917:
  5166  00119C  CFF6 FFE9          	movff	tblptrl,fsr0l
  5167  0011A0  CFF7 FFEA          	movff	tblptrh,fsr0h
  5168  0011A4  50EF               	movf	indf0,w,c
  5169  0011A6                     u910:
  5170  0011A6  0900               	iorlw	0
  5171  0011A8  A4D8               	btfss	status,2,c
  5172  0011AA  EFD9  F008         	goto	u921
  5173  0011AE  EFDB  F008         	goto	u920
  5174  0011B2                     u921:
  5175  0011B2  EFC1  F008         	goto	l2290
  5176  0011B6                     u920:
  5177  0011B6  5003               	movf	strlen@s^0,w,c
  5178  0011B8  5C05               	subwf	strlen@cp^0,w,c
  5179  0011BA  6E03               	movwf	?_strlen^0,c
  5180  0011BC  5004               	movf	(strlen@s+1)^0,w,c
  5181  0011BE  5806               	subwfb	(strlen@cp+1)^0,w,c
  5182  0011C0  6E04               	movwf	(?_strlen+1)^0,c
  5183  0011C2  0012               	return		;funcret
  5184  0011C4                     __end_of_strlen:
  5185                           	callstack 0
  5186                           
  5187 ;; *************** function _UART_Write_AT *****************
  5188 ;; Defined at:
  5189 ;;		line 391 in file "newmain.c"
  5190 ;; Parameters:    Size  Location     Type
  5191 ;;  _data           2    8[COMRAM] PTR unsigned char 
  5192 ;;		 -> close_command(20), send_command(20), STR_26(3), STR_25(14), 
  5193 ;;		 -> code(30), STR_24(16), STR_21(11), STR_20(10), 
  5194 ;;		 -> STR_19(12), STR_18(12), STR_17(12), STR_16(9), 
  5195 ;;		 -> STR_7(9), 
  5196 ;; Auto vars:     Size  Location     Type
  5197 ;;		None
  5198 ;; Return value:  Size  Location     Type
  5199 ;;                  1    wreg      void 
  5200 ;; Registers used:
  5201 ;;		wreg, fsr0l, fsr0h, status,2, status,0, tblptrl, tblptrh, tblptru, cstack
  5202 ;; Tracked objects:
  5203 ;;		On entry : 0/0
  5204 ;;		On exit  : 0/0
  5205 ;;		Unchanged: 0/0
  5206 ;; Data sizes:     COMRAM   BANK0   BANK1   BANK2   BANK3   BANK4   BANK5   BANK6   BANK7   BANK8   BANK9  BANK10  BANK1
      +1  BANK12  BANK13  BANK14  BANK15
  5207 ;;      Params:         2       0       0       0       0       0       0       0       0       0       0       0       
      +0       0       0       0       0
  5208 ;;      Locals:         0       0       0       0       0       0       0       0       0       0       0       0       
      +0       0       0       0       0
  5209 ;;      Temps:          0       0       0       0       0       0       0       0       0       0       0       0       
      +0       0       0       0       0
  5210 ;;      Totals:         2       0       0       0       0       0       0       0       0       0       0       0       
      +0       0       0       0       0
  5211 ;;Total ram usage:        2 bytes
  5212 ;; Hardware stack levels used:    1
  5213 ;; Hardware stack levels required when called:    3
  5214 ;; This function calls:
  5215 ;;		_uart_char_write
  5216 ;;		_uart_text_write
  5217 ;; This function is called by:
  5218 ;;		_disconnect_ap
  5219 ;;		_ap_and_station_mode
  5220 ;;		_mult_connection
  5221 ;;		_connected_to_ap
  5222 ;;		_check_connected_ap
  5223 ;;		_WiFi_Config
  5224 ;;		_Get_IP_MAC
  5225 ;;		_single_conection
  5226 ;;		_check_webpage_request
  5227 ;;		_check_webpage_request_2
  5228 ;; This function uses a non-reentrant model
  5229 ;;
  5230                           
  5231                           	psect	text31
  5232  001444                     __ptext31:
  5233                           	callstack 0
  5234  001444                     _UART_Write_AT:
  5235                           	callstack 25
  5236  001444                     
  5237                           ;newmain.c: 393: uart_text_write(_data);
  5238  001444  C009  F003         	movff	UART_Write_AT@_data,uart_text_write@RF6
  5239  001448  C00A  F004         	movff	UART_Write_AT@_data+1,uart_text_write@RF6+1
  5240  00144C  ECC6  F006         	call	_uart_text_write	;wreg free
  5241  001450                     
  5242                           ;newmain.c: 394: uart_char_write(0x0D);
  5243  001450  0E0D               	movlw	13
  5244  001452  EC14  F00A         	call	_uart_char_write
  5245  001456                     
  5246                           ;newmain.c: 395: uart_char_write(0x0A);
  5247  001456  0E0A               	movlw	10
  5248  001458  EC14  F00A         	call	_uart_char_write
  5249  00145C  0012               	return		;funcret
  5250  00145E                     __end_of_UART_Write_AT:
  5251                           	callstack 0
  5252                           
  5253 ;; *************** function _uart_text_write *****************
  5254 ;; Defined at:
  5255 ;;		line 264 in file "newmain.c"
  5256 ;; Parameters:    Size  Location     Type
  5257 ;;  RF6             2    2[COMRAM] PTR unsigned char 
  5258 ;;		 -> send_req_data@link_req(90), tcp_web(44), send_data_direct@send_command_1(0), close_command(20), 
  5259 ;;		 -> counter_text(5), STR_30(14), send_command(20), adc_value_text(6), 
  5260 ;;		 -> STR_26(3), STR_25(14), code(30), STR_24(16), 
  5261 ;;		 -> port(3), STR_22(15), STR_21(11), STR_20(10), 
  5262 ;;		 -> STR_19(12), STR_18(12), STR_17(12), STR_16(9), 
  5263 ;;		 -> STR_7(9), STR_2(11), STR_1(4), 
  5264 ;; Auto vars:     Size  Location     Type
  5265 ;;  i               2    6[COMRAM] int 
  5266 ;; Return value:  Size  Location     Type
  5267 ;;                  1    wreg      void 
  5268 ;; Registers used:
  5269 ;;		wreg, fsr0l, fsr0h, status,2, status,0, tblptrl, tblptrh, tblptru
  5270 ;; Tracked objects:
  5271 ;;		On entry : 0/0
  5272 ;;		On exit  : 0/0
  5273 ;;		Unchanged: 0/0
  5274 ;; Data sizes:     COMRAM   BANK0   BANK1   BANK2   BANK3   BANK4   BANK5   BANK6   BANK7   BANK8   BANK9  BANK10  BANK1
      +1  BANK12  BANK13  BANK14  BANK15
  5275 ;;      Params:         2       0       0       0       0       0       0       0       0       0       0       0       
      +0       0       0       0       0
  5276 ;;      Locals:         2       0       0       0       0       0       0       0       0       0       0       0       
      +0       0       0       0       0
  5277 ;;      Temps:          2       0       0       0       0       0       0       0       0       0       0       0       
      +0       0       0       0       0
  5278 ;;      Totals:         6       0       0       0       0       0       0       0       0       0       0       0       
      +0       0       0       0       0
  5279 ;;Total ram usage:        6 bytes
  5280 ;; Hardware stack levels used:    1
  5281 ;; Hardware stack levels required when called:    1
  5282 ;; This function calls:
  5283 ;;		Nothing
  5284 ;; This function is called by:
  5285 ;;		_UART_Write_AT
  5286 ;;		_connected_to_ap
  5287 ;;		_send_data_direct
  5288 ;;		_connected_to_thingspeak
  5289 ;;		_config_server
  5290 ;;		_send_adc_value
  5291 ;;		_check_webpage_request_2
  5292 ;; This function uses a non-reentrant model
  5293 ;;
  5294                           
  5295                           	psect	text32
  5296  000D8C                     __ptext32:
  5297                           	callstack 0
  5298  000D8C                     _uart_text_write:
  5299                           	callstack 27
  5300  000D8C                     
  5301                           ;newmain.c: 265: int i;;newmain.c: 266: i=0;
  5302  000D8C  0E00               	movlw	0
  5303  000D8E  6E08               	movwf	(uart_text_write@i+1)^0,c
  5304  000D90  0E00               	movlw	0
  5305  000D92  6E07               	movwf	uart_text_write@i^0,c
  5306  000D94                     l2378:
  5307                           
  5308                           ;newmain.c: 269: TXREG = RF6[i];
  5309  000D94  5007               	movf	uart_text_write@i^0,w,c
  5310  000D96  2403               	addwf	uart_text_write@RF6^0,w,c
  5311  000D98  6E05               	movwf	??_uart_text_write^0,c
  5312  000D9A  5008               	movf	(uart_text_write@i+1)^0,w,c
  5313  000D9C  2004               	addwfc	(uart_text_write@RF6+1)^0,w,c
  5314  000D9E  6E06               	movwf	(??_uart_text_write+1)^0,c
  5315  000DA0  C005  FFF6         	movff	??_uart_text_write,tblptrl
  5316  000DA4  C006  FFF7         	movff	??_uart_text_write+1,tblptrh
  5317  000DA8  6AF8               	clrf	tblptru,c
  5318  000DAA  0E0F               	movlw	(high __ramtop+-1)
  5319  000DAC  64F7               	cpfsgt	tblptrh,c
  5320  000DAE  D003               	bra	u987
  5321  000DB0  0008               	tblrd		*
  5322  000DB2  50F5               	movf	tablat,w,c
  5323  000DB4  D005               	bra	u980
  5324  000DB6                     u987:
  5325  000DB6  CFF6 FFE9          	movff	tblptrl,fsr0l
  5326  000DBA  CFF7 FFEA          	movff	tblptrh,fsr0h
  5327  000DBE  50EF               	movf	indf0,w,c
  5328  000DC0                     u980:
  5329  000DC0  6EAD               	movwf	173,c	;volatile
  5330  000DC2                     l200:
  5331  000DC2  A2AC               	btfss	4012,1,c	;volatile
  5332  000DC4  EFE6  F006         	goto	u991
  5333  000DC8  EFE8  F006         	goto	u990
  5334  000DCC                     u991:
  5335  000DCC  EFE1  F006         	goto	l200
  5336  000DD0                     u990:
  5337  000DD0                     
  5338                           ;newmain.c: 271: };newmain.c: 272: i++;
  5339  000DD0  4A07               	infsnz	uart_text_write@i^0,f,c
  5340  000DD2  2A08               	incf	(uart_text_write@i+1)^0,f,c
  5341  000DD4                     
  5342                           ;newmain.c: 275: }while(RF6[i]!='\0');
  5343  000DD4  5007               	movf	uart_text_write@i^0,w,c
  5344  000DD6  2403               	addwf	uart_text_write@RF6^0,w,c
  5345  000DD8  6E05               	movwf	??_uart_text_write^0,c
  5346  000DDA  5008               	movf	(uart_text_write@i+1)^0,w,c
  5347  000DDC  2004               	addwfc	(uart_text_write@RF6+1)^0,w,c
  5348  000DDE  6E06               	movwf	(??_uart_text_write+1)^0,c
  5349  000DE0  C005  FFF6         	movff	??_uart_text_write,tblptrl
  5350  000DE4  C006  FFF7         	movff	??_uart_text_write+1,tblptrh
  5351  000DE8  6AF8               	clrf	tblptru,c
  5352  000DEA  0E0F               	movlw	(high __ramtop+-1)
  5353  000DEC  64F7               	cpfsgt	tblptrh,c
  5354  000DEE  D003               	bra	u1007
  5355  000DF0  0008               	tblrd		*
  5356  000DF2  50F5               	movf	tablat,w,c
  5357  000DF4  D005               	bra	u1000
  5358  000DF6                     u1007:
  5359  000DF6  CFF6 FFE9          	movff	tblptrl,fsr0l
  5360  000DFA  CFF7 FFEA          	movff	tblptrh,fsr0h
  5361  000DFE  50EF               	movf	indf0,w,c
  5362  000E00                     u1000:
  5363  000E00  0900               	iorlw	0
  5364  000E02  A4D8               	btfss	status,2,c
  5365  000E04  EF06  F007         	goto	u1011
  5366  000E08  EF08  F007         	goto	u1010
  5367  000E0C                     u1011:
  5368  000E0C  EFCA  F006         	goto	l2378
  5369  000E10                     u1010:
  5370  000E10                     
  5371                           ;newmain.c: 277: SPEN = 0;
  5372  000E10  9EAB               	bcf	4011,7,c	;volatile
  5373  000E12  0012               	return		;funcret
  5374  000E14                     __end_of_uart_text_write:
  5375                           	callstack 0
  5376                           
  5377 ;; *************** function _uart_char_write *****************
  5378 ;; Defined at:
  5379 ;;		line 253 in file "newmain.c"
  5380 ;; Parameters:    Size  Location     Type
  5381 ;;  RF6             1    wreg     unsigned char 
  5382 ;; Auto vars:     Size  Location     Type
  5383 ;;  RF6             1    2[COMRAM] unsigned char 
  5384 ;; Return value:  Size  Location     Type
  5385 ;;                  1    wreg      void 
  5386 ;; Registers used:
  5387 ;;		wreg, status,2, cstack
  5388 ;; Tracked objects:
  5389 ;;		On entry : 0/0
  5390 ;;		On exit  : 0/0
  5391 ;;		Unchanged: 0/0
  5392 ;; Data sizes:     COMRAM   BANK0   BANK1   BANK2   BANK3   BANK4   BANK5   BANK6   BANK7   BANK8   BANK9  BANK10  BANK1
      +1  BANK12  BANK13  BANK14  BANK15
  5393 ;;      Params:         0       0       0       0       0       0       0       0       0       0       0       0       
      +0       0       0       0       0
  5394 ;;      Locals:         1       0       0       0       0       0       0       0       0       0       0       0       
      +0       0       0       0       0
  5395 ;;      Temps:          0       0       0       0       0       0       0       0       0       0       0       0       
      +0       0       0       0       0
  5396 ;;      Totals:         1       0       0       0       0       0       0       0       0       0       0       0       
      +0       0       0       0       0
  5397 ;;Total ram usage:        1 bytes
  5398 ;; Hardware stack levels used:    1
  5399 ;; Hardware stack levels required when called:    2
  5400 ;; This function calls:
  5401 ;;		_uart_init
  5402 ;; This function is called by:
  5403 ;;		_UART_Write_AT
  5404 ;;		_new_line
  5405 ;;		_connected_to_ap
  5406 ;;		_uart_write_data_const
  5407 ;;		_uart_write_data
  5408 ;;		_config_server
  5409 ;; This function uses a non-reentrant model
  5410 ;;
  5411                           
  5412                           	psect	text33
  5413  001428                     __ptext33:
  5414                           	callstack 0
  5415  001428                     _uart_char_write:
  5416                           	callstack 25
  5417                           
  5418                           ;incstack = 0
  5419                           ;uart_char_write@RF6 stored from wreg
  5420  001428  6E03               	movwf	uart_char_write@RF6^0,c
  5421  00142A                     
  5422                           ;newmain.c: 254: uart_init();
  5423  00142A  EC6B  F00A         	call	_uart_init	;wreg free
  5424  00142E                     
  5425                           ;newmain.c: 256: TXREG = RF6;
  5426  00142E  C003  FFAD         	movff	uart_char_write@RF6,4013	;volatile
  5427  001432                     l193:
  5428  001432  A2AC               	btfss	4012,1,c	;volatile
  5429  001434  EF1E  F00A         	goto	u971
  5430  001438  EF20  F00A         	goto	u970
  5431  00143C                     u971:
  5432  00143C  EF19  F00A         	goto	l193
  5433  001440                     u970:
  5434  001440                     
  5435                           ;newmain.c: 260: };newmain.c: 261: SPEN = 0;
  5436  001440  9EAB               	bcf	4011,7,c	;volatile
  5437  001442  0012               	return		;funcret
  5438  001444                     __end_of_uart_char_write:
  5439                           	callstack 0
  5440                           
  5441 ;; *************** function _uart_init *****************
  5442 ;; Defined at:
  5443 ;;		line 335 in file "newmain.c"
  5444 ;; Parameters:    Size  Location     Type
  5445 ;;		None
  5446 ;; Auto vars:     Size  Location     Type
  5447 ;;		None
  5448 ;; Return value:  Size  Location     Type
  5449 ;;                  1    wreg      void 
  5450 ;; Registers used:
  5451 ;;		wreg, status,2
  5452 ;; Tracked objects:
  5453 ;;		On entry : 0/0
  5454 ;;		On exit  : 0/0
  5455 ;;		Unchanged: 0/0
  5456 ;; Data sizes:     COMRAM   BANK0   BANK1   BANK2   BANK3   BANK4   BANK5   BANK6   BANK7   BANK8   BANK9  BANK10  BANK1
      +1  BANK12  BANK13  BANK14  BANK15
  5457 ;;      Params:         0       0       0       0       0       0       0       0       0       0       0       0       
      +0       0       0       0       0
  5458 ;;      Locals:         0       0       0       0       0       0       0       0       0       0       0       0       
      +0       0       0       0       0
  5459 ;;      Temps:          0       0       0       0       0       0       0       0       0       0       0       0       
      +0       0       0       0       0
  5460 ;;      Totals:         0       0       0       0       0       0       0       0       0       0       0       0       
      +0       0       0       0       0
  5461 ;;Total ram usage:        0 bytes
  5462 ;; Hardware stack levels used:    1
  5463 ;; Hardware stack levels required when called:    1
  5464 ;; This function calls:
  5465 ;;		Nothing
  5466 ;; This function is called by:
  5467 ;;		_uart_char_write
  5468 ;;		_config
  5469 ;; This function uses a non-reentrant model
  5470 ;;
  5471                           
  5472                           	psect	text34
  5473  0014D6                     __ptext34:
  5474                           	callstack 0
  5475  0014D6                     _uart_init:
  5476                           	callstack 25
  5477  0014D6                     
  5478                           ;newmain.c: 337: BRGH = 1;
  5479  0014D6  84AC               	bsf	4012,2,c	;volatile
  5480  0014D8                     
  5481                           ;newmain.c: 338: SPBRG = 51;
  5482  0014D8  0E33               	movlw	51
  5483  0014DA  6EAF               	movwf	175,c	;volatile
  5484  0014DC                     
  5485                           ;newmain.c: 340: SYNC = 0;
  5486  0014DC  98AC               	bcf	4012,4,c	;volatile
  5487  0014DE                     
  5488                           ;newmain.c: 341: SPEN = 1;
  5489  0014DE  8EAB               	bsf	4011,7,c	;volatile
  5490  0014E0                     
  5491                           ;newmain.c: 343: TRISC6 = 1;
  5492  0014E0  8C94               	bsf	3988,6,c	;volatile
  5493  0014E2                     
  5494                           ;newmain.c: 344: TRISC7 = 1;
  5495  0014E2  8E94               	bsf	3988,7,c	;volatile
  5496  0014E4                     
  5497                           ;newmain.c: 345: TXEN = 1;
  5498  0014E4  8AAC               	bsf	4012,5,c	;volatile
  5499  0014E6  0012               	return		;funcret
  5500  0014E8                     __end_of_uart_init:
  5501                           	callstack 0
  5502                           
  5503 ;; *************** function _MPU6050_Read *****************
  5504 ;; Defined at:
  5505 ;;		line 1271 in file "newmain.c"
  5506 ;; Parameters:    Size  Location     Type
  5507 ;;		None
  5508 ;; Auto vars:     Size  Location     Type
  5509 ;;  buffer         40    0        unsigned char [40]
  5510 ;;  Ax              2   22[COMRAM] int 
  5511 ;;  T               2   20[COMRAM] int 
  5512 ;;  Gz              2   18[COMRAM] int 
  5513 ;;  Gy              2   16[COMRAM] int 
  5514 ;;  Gx              2   14[COMRAM] int 
  5515 ;;  Az              2   12[COMRAM] int 
  5516 ;;  Ay              2    0        int 
  5517 ;; Return value:  Size  Location     Type
  5518 ;;                  2    4[COMRAM] int 
  5519 ;; Registers used:
  5520 ;;		wreg, status,2, status,0, cstack
  5521 ;; Tracked objects:
  5522 ;;		On entry : 0/0
  5523 ;;		On exit  : 0/0
  5524 ;;		Unchanged: 0/0
  5525 ;; Data sizes:     COMRAM   BANK0   BANK1   BANK2   BANK3   BANK4   BANK5   BANK6   BANK7   BANK8   BANK9  BANK10  BANK1
      +1  BANK12  BANK13  BANK14  BANK15
  5526 ;;      Params:         2       0       0       0       0       0       0       0       0       0       0       0       
      +0       0       0       0       0
  5527 ;;      Locals:        14       0       0       0       0       0       0       0       0       0       0       0       
      +0       0       0       0       0
  5528 ;;      Temps:          4       0       0       0       0       0       0       0       0       0       0       0       
      +0       0       0       0       0
  5529 ;;      Totals:        20       0       0       0       0       0       0       0       0       0       0       0       
      +0       0       0       0       0
  5530 ;;Total ram usage:       20 bytes
  5531 ;; Hardware stack levels used:    1
  5532 ;; Hardware stack levels required when called:    4
  5533 ;; This function calls:
  5534 ;;		_I2C_Master_Stop
  5535 ;;		_I2C_Master_Write
  5536 ;;		_I2C_Read
  5537 ;;		_I2C_Read_NACK
  5538 ;;		_I2C_Start
  5539 ;; This function is called by:
  5540 ;;		_main
  5541 ;; This function uses a non-reentrant model
  5542 ;;
  5543                           
  5544                           	psect	text35
  5545  000A24                     __ptext35:
  5546                           	callstack 0
  5547  000A24                     _MPU6050_Read:
  5548                           	callstack 26
  5549  000A24                     
  5550                           ;newmain.c: 1273: char buffer[40];;newmain.c: 1274: int Ax, Ay, Az, Gx, Gy, Gz, T;;newma
      +                          in.c: 1276: I2C_Start();
  5551  000A24  EC9B  F00A         	call	_I2C_Start	;wreg free
  5552                           
  5553                           ;newmain.c: 1277: I2C_Master_Write(0x3B);
  5554  000A28  0E3B               	movlw	59
  5555  000A2A  EC74  F00A         	call	_I2C_Master_Write
  5556                           
  5557                           ;newmain.c: 1278: I2C_Master_Stop();
  5558  000A2E  EC9F  F00A         	call	_I2C_Master_Stop	;wreg free
  5559                           
  5560                           ;newmain.c: 1279: I2C_Start();
  5561  000A32  EC9B  F00A         	call	_I2C_Start	;wreg free
  5562                           
  5563                           ;newmain.c: 1280: Ax = ((int)I2C_Read()<<8) | (int)I2C_Read();
  5564  000A36  EC3C  F00A         	call	_I2C_Read	;wreg free
  5565  000A3A  6E07               	movwf	??_MPU6050_Read^0,c
  5566  000A3C  5007               	movf	??_MPU6050_Read^0,w,c
  5567  000A3E  6E09               	movwf	(??_MPU6050_Read+2)^0,c
  5568  000A40  6A08               	clrf	(??_MPU6050_Read+1)^0,c
  5569  000A42  EC3C  F00A         	call	_I2C_Read	;wreg free
  5570  000A46  6E0A               	movwf	(??_MPU6050_Read+3)^0,c
  5571  000A48  500A               	movf	(??_MPU6050_Read+3)^0,w,c
  5572  000A4A  1008               	iorwf	(??_MPU6050_Read+1)^0,w,c
  5573  000A4C  6E17               	movwf	MPU6050_Read@Ax^0,c
  5574  000A4E  5009               	movf	(??_MPU6050_Read+2)^0,w,c
  5575  000A50  6E18               	movwf	(MPU6050_Read@Ax+1)^0,c
  5576  000A52  EC3C  F00A         	call	_I2C_Read	;wreg free
  5577  000A56  EC3C  F00A         	call	_I2C_Read	;wreg free
  5578                           
  5579                           ;newmain.c: 1282: Az = ((int)I2C_Read()<<8) | (int)I2C_Read();
  5580  000A5A  EC3C  F00A         	call	_I2C_Read	;wreg free
  5581  000A5E  6E07               	movwf	??_MPU6050_Read^0,c
  5582  000A60  5007               	movf	??_MPU6050_Read^0,w,c
  5583  000A62  6E09               	movwf	(??_MPU6050_Read+2)^0,c
  5584  000A64  6A08               	clrf	(??_MPU6050_Read+1)^0,c
  5585  000A66  EC3C  F00A         	call	_I2C_Read	;wreg free
  5586  000A6A  6E0A               	movwf	(??_MPU6050_Read+3)^0,c
  5587  000A6C  500A               	movf	(??_MPU6050_Read+3)^0,w,c
  5588  000A6E  1008               	iorwf	(??_MPU6050_Read+1)^0,w,c
  5589  000A70  6E0D               	movwf	MPU6050_Read@Az^0,c
  5590  000A72  5009               	movf	(??_MPU6050_Read+2)^0,w,c
  5591  000A74  6E0E               	movwf	(MPU6050_Read@Az+1)^0,c
  5592                           
  5593                           ;newmain.c: 1283: T = ((int)I2C_Read()<<8) | (int)I2C_Read();
  5594  000A76  EC3C  F00A         	call	_I2C_Read	;wreg free
  5595  000A7A  6E07               	movwf	??_MPU6050_Read^0,c
  5596  000A7C  5007               	movf	??_MPU6050_Read^0,w,c
  5597  000A7E  6E09               	movwf	(??_MPU6050_Read+2)^0,c
  5598  000A80  6A08               	clrf	(??_MPU6050_Read+1)^0,c
  5599  000A82  EC3C  F00A         	call	_I2C_Read	;wreg free
  5600  000A86  6E0A               	movwf	(??_MPU6050_Read+3)^0,c
  5601  000A88  500A               	movf	(??_MPU6050_Read+3)^0,w,c
  5602  000A8A  1008               	iorwf	(??_MPU6050_Read+1)^0,w,c
  5603  000A8C  6E15               	movwf	MPU6050_Read@T^0,c
  5604  000A8E  5009               	movf	(??_MPU6050_Read+2)^0,w,c
  5605  000A90  6E16               	movwf	(MPU6050_Read@T+1)^0,c
  5606                           
  5607                           ;newmain.c: 1284: Gx = ((int)I2C_Read()<<8) | (int)I2C_Read();
  5608  000A92  EC3C  F00A         	call	_I2C_Read	;wreg free
  5609  000A96  6E07               	movwf	??_MPU6050_Read^0,c
  5610  000A98  5007               	movf	??_MPU6050_Read^0,w,c
  5611  000A9A  6E09               	movwf	(??_MPU6050_Read+2)^0,c
  5612  000A9C  6A08               	clrf	(??_MPU6050_Read+1)^0,c
  5613  000A9E  EC3C  F00A         	call	_I2C_Read	;wreg free
  5614  000AA2  6E0A               	movwf	(??_MPU6050_Read+3)^0,c
  5615  000AA4  500A               	movf	(??_MPU6050_Read+3)^0,w,c
  5616  000AA6  1008               	iorwf	(??_MPU6050_Read+1)^0,w,c
  5617  000AA8  6E0F               	movwf	MPU6050_Read@Gx^0,c
  5618  000AAA  5009               	movf	(??_MPU6050_Read+2)^0,w,c
  5619  000AAC  6E10               	movwf	(MPU6050_Read@Gx+1)^0,c
  5620                           
  5621                           ;newmain.c: 1285: Gy = ((int)I2C_Read()<<8) | (int)I2C_Read();
  5622  000AAE  EC3C  F00A         	call	_I2C_Read	;wreg free
  5623  000AB2  6E07               	movwf	??_MPU6050_Read^0,c
  5624  000AB4  5007               	movf	??_MPU6050_Read^0,w,c
  5625  000AB6  6E09               	movwf	(??_MPU6050_Read+2)^0,c
  5626  000AB8  6A08               	clrf	(??_MPU6050_Read+1)^0,c
  5627  000ABA  EC3C  F00A         	call	_I2C_Read	;wreg free
  5628  000ABE  6E0A               	movwf	(??_MPU6050_Read+3)^0,c
  5629  000AC0  500A               	movf	(??_MPU6050_Read+3)^0,w,c
  5630  000AC2  1008               	iorwf	(??_MPU6050_Read+1)^0,w,c
  5631  000AC4  6E11               	movwf	MPU6050_Read@Gy^0,c
  5632  000AC6  5009               	movf	(??_MPU6050_Read+2)^0,w,c
  5633  000AC8  6E12               	movwf	(MPU6050_Read@Gy+1)^0,c
  5634                           
  5635                           ;newmain.c: 1286: Gz = ((int)I2C_Read()<<8) | (int)I2C_Read_NACK();
  5636  000ACA  EC3C  F00A         	call	_I2C_Read	;wreg free
  5637  000ACE  6E07               	movwf	??_MPU6050_Read^0,c
  5638  000AD0  5007               	movf	??_MPU6050_Read^0,w,c
  5639  000AD2  6E09               	movwf	(??_MPU6050_Read+2)^0,c
  5640  000AD4  6A08               	clrf	(??_MPU6050_Read+1)^0,c
  5641  000AD6  EC2F  F00A         	call	_I2C_Read_NACK	;wreg free
  5642  000ADA  6E0A               	movwf	(??_MPU6050_Read+3)^0,c
  5643  000ADC  500A               	movf	(??_MPU6050_Read+3)^0,w,c
  5644  000ADE  1008               	iorwf	(??_MPU6050_Read+1)^0,w,c
  5645  000AE0  6E13               	movwf	MPU6050_Read@Gz^0,c
  5646  000AE2  5009               	movf	(??_MPU6050_Read+2)^0,w,c
  5647  000AE4  6E14               	movwf	(MPU6050_Read@Gz+1)^0,c
  5648                           
  5649                           ;newmain.c: 1287: I2C_Master_Stop();
  5650  000AE6  EC9F  F00A         	call	_I2C_Master_Stop	;wreg free
  5651  000AEA                     
  5652                           ;newmain.c: 1289: return (Ax);
  5653  000AEA  C017  F005         	movff	MPU6050_Read@Ax,?_MPU6050_Read
  5654  000AEE  C018  F006         	movff	MPU6050_Read@Ax+1,?_MPU6050_Read+1
  5655  000AF2  0012               	return		;funcret
  5656  000AF4                     __end_of_MPU6050_Read:
  5657                           	callstack 0
  5658                           
  5659 ;; *************** function _I2C_Read_NACK *****************
  5660 ;; Defined at:
  5661 ;;		line 1223 in file "newmain.c"
  5662 ;; Parameters:    Size  Location     Type
  5663 ;;		None
  5664 ;; Auto vars:     Size  Location     Type
  5665 ;;		None
  5666 ;; Return value:  Size  Location     Type
  5667 ;;                  1    wreg      unsigned char 
  5668 ;; Registers used:
  5669 ;;		wreg, status,2, status,0, cstack
  5670 ;; Tracked objects:
  5671 ;;		On entry : 0/0
  5672 ;;		On exit  : 0/0
  5673 ;;		Unchanged: 0/0
  5674 ;; Data sizes:     COMRAM   BANK0   BANK1   BANK2   BANK3   BANK4   BANK5   BANK6   BANK7   BANK8   BANK9  BANK10  BANK1
      +1  BANK12  BANK13  BANK14  BANK15
  5675 ;;      Params:         0       0       0       0       0       0       0       0       0       0       0       0       
      +0       0       0       0       0
  5676 ;;      Locals:         0       0       0       0       0       0       0       0       0       0       0       0       
      +0       0       0       0       0
  5677 ;;      Temps:          0       0       0       0       0       0       0       0       0       0       0       0       
      +0       0       0       0       0
  5678 ;;      Totals:         0       0       0       0       0       0       0       0       0       0       0       0       
      +0       0       0       0       0
  5679 ;;Total ram usage:        0 bytes
  5680 ;; Hardware stack levels used:    1
  5681 ;; Hardware stack levels required when called:    3
  5682 ;; This function calls:
  5683 ;;		_I2C_NACK
  5684 ;; This function is called by:
  5685 ;;		_MPU6050_Read
  5686 ;; This function uses a non-reentrant model
  5687 ;;
  5688                           
  5689                           	psect	text36
  5690  00145E                     __ptext36:
  5691                           	callstack 0
  5692  00145E                     _I2C_Read_NACK:
  5693                           	callstack 26
  5694  00145E                     
  5695                           ;newmain.c: 1226: RCEN = 1;
  5696  00145E  86C5               	bsf	4037,3,c	;volatile
  5697  001460                     l463:
  5698  001460  A69E               	btfss	3998,3,c	;volatile
  5699  001462  EF35  F00A         	goto	u551
  5700  001466  EF37  F00A         	goto	u550
  5701  00146A                     u551:
  5702  00146A  EF30  F00A         	goto	l463
  5703  00146E                     u550:
  5704  00146E                     
  5705                           ;newmain.c: 1228: SSPIF = 0;
  5706  00146E  969E               	bcf	3998,3,c	;volatile
  5707  001470                     
  5708                           ;newmain.c: 1229: I2C_NACK();
  5709  001470  EC91  F00A         	call	_I2C_NACK	;wreg free
  5710  001474                     
  5711                           ;newmain.c: 1230: return SSPBUF;
  5712  001474  50C9               	movf	201,w,c	;volatile
  5713  001476  0012               	return		;funcret
  5714  001478                     __end_of_I2C_Read_NACK:
  5715                           	callstack 0
  5716                           
  5717 ;; *************** function _I2C_NACK *****************
  5718 ;; Defined at:
  5719 ;;		line 1196 in file "newmain.c"
  5720 ;; Parameters:    Size  Location     Type
  5721 ;;		None
  5722 ;; Auto vars:     Size  Location     Type
  5723 ;;		None
  5724 ;; Return value:  Size  Location     Type
  5725 ;;                  1    wreg      void 
  5726 ;; Registers used:
  5727 ;;		wreg, status,2, status,0, cstack
  5728 ;; Tracked objects:
  5729 ;;		On entry : 0/0
  5730 ;;		On exit  : 0/0
  5731 ;;		Unchanged: 0/0
  5732 ;; Data sizes:     COMRAM   BANK0   BANK1   BANK2   BANK3   BANK4   BANK5   BANK6   BANK7   BANK8   BANK9  BANK10  BANK1
      +1  BANK12  BANK13  BANK14  BANK15
  5733 ;;      Params:         0       0       0       0       0       0       0       0       0       0       0       0       
      +0       0       0       0       0
  5734 ;;      Locals:         0       0       0       0       0       0       0       0       0       0       0       0       
      +0       0       0       0       0
  5735 ;;      Temps:          0       0       0       0       0       0       0       0       0       0       0       0       
      +0       0       0       0       0
  5736 ;;      Totals:         0       0       0       0       0       0       0       0       0       0       0       0       
      +0       0       0       0       0
  5737 ;;Total ram usage:        0 bytes
  5738 ;; Hardware stack levels used:    1
  5739 ;; Hardware stack levels required when called:    2
  5740 ;; This function calls:
  5741 ;;		_I2C_Wait
  5742 ;; This function is called by:
  5743 ;;		_I2C_Read_NACK
  5744 ;; This function uses a non-reentrant model
  5745 ;;
  5746                           
  5747                           	psect	text37
  5748  001522                     __ptext37:
  5749                           	callstack 0
  5750  001522                     _I2C_NACK:
  5751                           	callstack 26
  5752  001522                     
  5753                           ;newmain.c: 1199: I2C_Wait();
  5754  001522  ECD0  F009         	call	_I2C_Wait	;wreg free
  5755  001526                     
  5756                           ;newmain.c: 1200: ACKDT = 1;
  5757  001526  8AC5               	bsf	4037,5,c	;volatile
  5758  001528                     
  5759                           ;newmain.c: 1201: ACKEN = 1;
  5760  001528  88C5               	bsf	4037,4,c	;volatile
  5761  00152A  0012               	return		;funcret
  5762  00152C                     __end_of_I2C_NACK:
  5763                           	callstack 0
  5764                           
  5765 ;; *************** function _I2C_Read *****************
  5766 ;; Defined at:
  5767 ;;		line 1213 in file "newmain.c"
  5768 ;; Parameters:    Size  Location     Type
  5769 ;;		None
  5770 ;; Auto vars:     Size  Location     Type
  5771 ;;		None
  5772 ;; Return value:  Size  Location     Type
  5773 ;;                  1    wreg      unsigned char 
  5774 ;; Registers used:
  5775 ;;		wreg, status,2, status,0, cstack
  5776 ;; Tracked objects:
  5777 ;;		On entry : 0/0
  5778 ;;		On exit  : 0/0
  5779 ;;		Unchanged: 0/0
  5780 ;; Data sizes:     COMRAM   BANK0   BANK1   BANK2   BANK3   BANK4   BANK5   BANK6   BANK7   BANK8   BANK9  BANK10  BANK1
      +1  BANK12  BANK13  BANK14  BANK15
  5781 ;;      Params:         0       0       0       0       0       0       0       0       0       0       0       0       
      +0       0       0       0       0
  5782 ;;      Locals:         0       0       0       0       0       0       0       0       0       0       0       0       
      +0       0       0       0       0
  5783 ;;      Temps:          0       0       0       0       0       0       0       0       0       0       0       0       
      +0       0       0       0       0
  5784 ;;      Totals:         0       0       0       0       0       0       0       0       0       0       0       0       
      +0       0       0       0       0
  5785 ;;Total ram usage:        0 bytes
  5786 ;; Hardware stack levels used:    1
  5787 ;; Hardware stack levels required when called:    3
  5788 ;; This function calls:
  5789 ;;		_I2C_ACK
  5790 ;; This function is called by:
  5791 ;;		_MPU6050_Read
  5792 ;; This function uses a non-reentrant model
  5793 ;;
  5794                           
  5795                           	psect	text38
  5796  001478                     __ptext38:
  5797                           	callstack 0
  5798  001478                     _I2C_Read:
  5799                           	callstack 26
  5800  001478                     
  5801                           ;newmain.c: 1216: RCEN = 1;
  5802  001478  86C5               	bsf	4037,3,c	;volatile
  5803  00147A                     l457:
  5804  00147A  A69E               	btfss	3998,3,c	;volatile
  5805  00147C  EF42  F00A         	goto	u541
  5806  001480  EF44  F00A         	goto	u540
  5807  001484                     u541:
  5808  001484  EF3D  F00A         	goto	l457
  5809  001488                     u540:
  5810  001488                     
  5811                           ;newmain.c: 1218: SSPIF = 0;
  5812  001488  969E               	bcf	3998,3,c	;volatile
  5813  00148A                     
  5814                           ;newmain.c: 1219: I2C_ACK();
  5815  00148A  EC96  F00A         	call	_I2C_ACK	;wreg free
  5816  00148E                     
  5817                           ;newmain.c: 1220: return SSPBUF;
  5818  00148E  50C9               	movf	201,w,c	;volatile
  5819  001490  0012               	return		;funcret
  5820  001492                     __end_of_I2C_Read:
  5821                           	callstack 0
  5822                           
  5823 ;; *************** function _I2C_ACK *****************
  5824 ;; Defined at:
  5825 ;;		line 1188 in file "newmain.c"
  5826 ;; Parameters:    Size  Location     Type
  5827 ;;		None
  5828 ;; Auto vars:     Size  Location     Type
  5829 ;;		None
  5830 ;; Return value:  Size  Location     Type
  5831 ;;                  1    wreg      void 
  5832 ;; Registers used:
  5833 ;;		wreg, status,2, status,0, cstack
  5834 ;; Tracked objects:
  5835 ;;		On entry : 0/0
  5836 ;;		On exit  : 0/0
  5837 ;;		Unchanged: 0/0
  5838 ;; Data sizes:     COMRAM   BANK0   BANK1   BANK2   BANK3   BANK4   BANK5   BANK6   BANK7   BANK8   BANK9  BANK10  BANK1
      +1  BANK12  BANK13  BANK14  BANK15
  5839 ;;      Params:         0       0       0       0       0       0       0       0       0       0       0       0       
      +0       0       0       0       0
  5840 ;;      Locals:         0       0       0       0       0       0       0       0       0       0       0       0       
      +0       0       0       0       0
  5841 ;;      Temps:          0       0       0       0       0       0       0       0       0       0       0       0       
      +0       0       0       0       0
  5842 ;;      Totals:         0       0       0       0       0       0       0       0       0       0       0       0       
      +0       0       0       0       0
  5843 ;;Total ram usage:        0 bytes
  5844 ;; Hardware stack levels used:    1
  5845 ;; Hardware stack levels required when called:    2
  5846 ;; This function calls:
  5847 ;;		_I2C_Wait
  5848 ;; This function is called by:
  5849 ;;		_I2C_Read
  5850 ;; This function uses a non-reentrant model
  5851 ;;
  5852                           
  5853                           	psect	text39
  5854  00152C                     __ptext39:
  5855                           	callstack 0
  5856  00152C                     _I2C_ACK:
  5857                           	callstack 26
  5858  00152C                     
  5859                           ;newmain.c: 1191: I2C_Wait();
  5860  00152C  ECD0  F009         	call	_I2C_Wait	;wreg free
  5861  001530                     
  5862                           ;newmain.c: 1192: ACKDT = 0;
  5863  001530  9AC5               	bcf	4037,5,c	;volatile
  5864  001532                     
  5865                           ;newmain.c: 1193: ACKEN = 1;
  5866  001532  88C5               	bsf	4037,4,c	;volatile
  5867  001534  0012               	return		;funcret
  5868  001536                     __end_of_I2C_ACK:
  5869                           	callstack 0
  5870                           
  5871 ;; *************** function _MPU6050_Init *****************
  5872 ;; Defined at:
  5873 ;;		line 1233 in file "newmain.c"
  5874 ;; Parameters:    Size  Location     Type
  5875 ;;		None
  5876 ;; Auto vars:     Size  Location     Type
  5877 ;;		None
  5878 ;; Return value:  Size  Location     Type
  5879 ;;                  1    wreg      void 
  5880 ;; Registers used:
  5881 ;;		wreg, status,2, status,0, cstack
  5882 ;; Tracked objects:
  5883 ;;		On entry : 0/0
  5884 ;;		On exit  : 0/0
  5885 ;;		Unchanged: 0/0
  5886 ;; Data sizes:     COMRAM   BANK0   BANK1   BANK2   BANK3   BANK4   BANK5   BANK6   BANK7   BANK8   BANK9  BANK10  BANK1
      +1  BANK12  BANK13  BANK14  BANK15
  5887 ;;      Params:         0       0       0       0       0       0       0       0       0       0       0       0       
      +0       0       0       0       0
  5888 ;;      Locals:         0       0       0       0       0       0       0       0       0       0       0       0       
      +0       0       0       0       0
  5889 ;;      Temps:          2       0       0       0       0       0       0       0       0       0       0       0       
      +0       0       0       0       0
  5890 ;;      Totals:         2       0       0       0       0       0       0       0       0       0       0       0       
      +0       0       0       0       0
  5891 ;;Total ram usage:        2 bytes
  5892 ;; Hardware stack levels used:    1
  5893 ;; Hardware stack levels required when called:    3
  5894 ;; This function calls:
  5895 ;;		_I2C_Master_Init
  5896 ;;		_I2C_Master_Stop
  5897 ;;		_I2C_Master_Write
  5898 ;;		_I2C_Start
  5899 ;; This function is called by:
  5900 ;;		_main
  5901 ;; This function uses a non-reentrant model
  5902 ;;
  5903                           
  5904                           	psect	text40
  5905  000CF6                     __ptext40:
  5906                           	callstack 0
  5907  000CF6                     _MPU6050_Init:
  5908                           	callstack 27
  5909  000CF6                     
  5910                           ;newmain.c: 1236: _delay((unsigned long)((100)*(8000000/4000.0)));
  5911  000CF6  0E02               	movlw	2
  5912  000CF8  6E06               	movwf	(??_MPU6050_Init+1)^0,c
  5913  000CFA  0E04               	movlw	4
  5914  000CFC  6E05               	movwf	??_MPU6050_Init^0,c
  5915  000CFE  0EBA               	movlw	186
  5916  000D00                     u2057:
  5917  000D00  2EE8               	decfsz	wreg,f,c
  5918  000D02  D7FE               	bra	u2057
  5919  000D04  2E05               	decfsz	??_MPU6050_Init^0,f,c
  5920  000D06  D7FC               	bra	u2057
  5921  000D08  2E06               	decfsz	(??_MPU6050_Init+1)^0,f,c
  5922  000D0A  D7FA               	bra	u2057
  5923  000D0C  D000               	nop2	
  5924  000D0E                     
  5925                           ;newmain.c: 1237: I2C_Master_Init();
  5926  000D0E  EC60  F00A         	call	_I2C_Master_Init	;wreg free
  5927  000D12                     
  5928                           ;newmain.c: 1239: I2C_Start();
  5929  000D12  EC9B  F00A         	call	_I2C_Start	;wreg free
  5930  000D16                     
  5931                           ;newmain.c: 1240: I2C_Master_Write(0x19);
  5932  000D16  0E19               	movlw	25
  5933  000D18  EC74  F00A         	call	_I2C_Master_Write
  5934  000D1C                     
  5935                           ;newmain.c: 1241: I2C_Master_Write(0x07);
  5936  000D1C  0E07               	movlw	7
  5937  000D1E  EC74  F00A         	call	_I2C_Master_Write
  5938  000D22                     
  5939                           ;newmain.c: 1242: I2C_Master_Stop();
  5940  000D22  EC9F  F00A         	call	_I2C_Master_Stop	;wreg free
  5941  000D26                     
  5942                           ;newmain.c: 1244: I2C_Start();
  5943  000D26  EC9B  F00A         	call	_I2C_Start	;wreg free
  5944  000D2A                     
  5945                           ;newmain.c: 1245: I2C_Master_Write(0x6B);
  5946  000D2A  0E6B               	movlw	107
  5947  000D2C  EC74  F00A         	call	_I2C_Master_Write
  5948  000D30                     
  5949                           ;newmain.c: 1246: I2C_Master_Write(0x01);
  5950  000D30  0E01               	movlw	1
  5951  000D32  EC74  F00A         	call	_I2C_Master_Write
  5952  000D36                     
  5953                           ;newmain.c: 1247: I2C_Master_Stop();
  5954  000D36  EC9F  F00A         	call	_I2C_Master_Stop	;wreg free
  5955  000D3A                     
  5956                           ;newmain.c: 1249: I2C_Start();
  5957  000D3A  EC9B  F00A         	call	_I2C_Start	;wreg free
  5958  000D3E                     
  5959                           ;newmain.c: 1250: I2C_Master_Write(0x1A);
  5960  000D3E  0E1A               	movlw	26
  5961  000D40  EC74  F00A         	call	_I2C_Master_Write
  5962  000D44                     
  5963                           ;newmain.c: 1251: I2C_Master_Write(0x00);
  5964  000D44  0E00               	movlw	0
  5965  000D46  EC74  F00A         	call	_I2C_Master_Write
  5966  000D4A                     
  5967                           ;newmain.c: 1252: I2C_Master_Stop();
  5968  000D4A  EC9F  F00A         	call	_I2C_Master_Stop	;wreg free
  5969  000D4E                     
  5970                           ;newmain.c: 1254: I2C_Start();
  5971  000D4E  EC9B  F00A         	call	_I2C_Start	;wreg free
  5972  000D52                     
  5973                           ;newmain.c: 1255: I2C_Master_Write(0x1C);
  5974  000D52  0E1C               	movlw	28
  5975  000D54  EC74  F00A         	call	_I2C_Master_Write
  5976  000D58                     
  5977                           ;newmain.c: 1256: I2C_Master_Write(0x00);
  5978  000D58  0E00               	movlw	0
  5979  000D5A  EC74  F00A         	call	_I2C_Master_Write
  5980  000D5E                     
  5981                           ;newmain.c: 1257: I2C_Master_Stop();
  5982  000D5E  EC9F  F00A         	call	_I2C_Master_Stop	;wreg free
  5983  000D62                     
  5984                           ;newmain.c: 1259: I2C_Start();
  5985  000D62  EC9B  F00A         	call	_I2C_Start	;wreg free
  5986  000D66                     
  5987                           ;newmain.c: 1260: I2C_Master_Write(0x1B);
  5988  000D66  0E1B               	movlw	27
  5989  000D68  EC74  F00A         	call	_I2C_Master_Write
  5990  000D6C                     
  5991                           ;newmain.c: 1261: I2C_Master_Write(0x18);
  5992  000D6C  0E18               	movlw	24
  5993  000D6E  EC74  F00A         	call	_I2C_Master_Write
  5994  000D72                     
  5995                           ;newmain.c: 1262: I2C_Master_Stop();
  5996  000D72  EC9F  F00A         	call	_I2C_Master_Stop	;wreg free
  5997  000D76                     
  5998                           ;newmain.c: 1264: I2C_Start();
  5999  000D76  EC9B  F00A         	call	_I2C_Start	;wreg free
  6000  000D7A                     
  6001                           ;newmain.c: 1265: I2C_Master_Write(0x38);
  6002  000D7A  0E38               	movlw	56
  6003  000D7C  EC74  F00A         	call	_I2C_Master_Write
  6004  000D80                     
  6005                           ;newmain.c: 1266: I2C_Master_Write(0x01);
  6006  000D80  0E01               	movlw	1
  6007  000D82  EC74  F00A         	call	_I2C_Master_Write
  6008  000D86                     
  6009                           ;newmain.c: 1267: I2C_Master_Stop();
  6010  000D86  EC9F  F00A         	call	_I2C_Master_Stop	;wreg free
  6011  000D8A  0012               	return		;funcret
  6012  000D8C                     __end_of_MPU6050_Init:
  6013                           	callstack 0
  6014                           
  6015 ;; *************** function _I2C_Start *****************
  6016 ;; Defined at:
  6017 ;;		line 1164 in file "newmain.c"
  6018 ;; Parameters:    Size  Location     Type
  6019 ;;		None
  6020 ;; Auto vars:     Size  Location     Type
  6021 ;;		None
  6022 ;; Return value:  Size  Location     Type
  6023 ;;                  1    wreg      void 
  6024 ;; Registers used:
  6025 ;;		wreg, status,2, status,0, cstack
  6026 ;; Tracked objects:
  6027 ;;		On entry : 0/0
  6028 ;;		On exit  : 0/0
  6029 ;;		Unchanged: 0/0
  6030 ;; Data sizes:     COMRAM   BANK0   BANK1   BANK2   BANK3   BANK4   BANK5   BANK6   BANK7   BANK8   BANK9  BANK10  BANK1
      +1  BANK12  BANK13  BANK14  BANK15
  6031 ;;      Params:         0       0       0       0       0       0       0       0       0       0       0       0       
      +0       0       0       0       0
  6032 ;;      Locals:         0       0       0       0       0       0       0       0       0       0       0       0       
      +0       0       0       0       0
  6033 ;;      Temps:          0       0       0       0       0       0       0       0       0       0       0       0       
      +0       0       0       0       0
  6034 ;;      Totals:         0       0       0       0       0       0       0       0       0       0       0       0       
      +0       0       0       0       0
  6035 ;;Total ram usage:        0 bytes
  6036 ;; Hardware stack levels used:    1
  6037 ;; Hardware stack levels required when called:    2
  6038 ;; This function calls:
  6039 ;;		_I2C_Wait
  6040 ;; This function is called by:
  6041 ;;		_MPU6050_Init
  6042 ;;		_MPU6050_Read
  6043 ;; This function uses a non-reentrant model
  6044 ;;
  6045                           
  6046                           	psect	text41
  6047  001536                     __ptext41:
  6048                           	callstack 0
  6049  001536                     _I2C_Start:
  6050                           	callstack 27
  6051  001536                     
  6052                           ;newmain.c: 1167: I2C_Wait();
  6053  001536  ECD0  F009         	call	_I2C_Wait	;wreg free
  6054  00153A                     
  6055                           ;newmain.c: 1168: SEN = 1;
  6056  00153A  80C5               	bsf	4037,0,c	;volatile
  6057  00153C  0012               	return		;funcret
  6058  00153E                     __end_of_I2C_Start:
  6059                           	callstack 0
  6060                           
  6061 ;; *************** function _I2C_Master_Write *****************
  6062 ;; Defined at:
  6063 ;;		line 1204 in file "newmain.c"
  6064 ;; Parameters:    Size  Location     Type
  6065 ;;  Data            1    wreg     unsigned char 
  6066 ;; Auto vars:     Size  Location     Type
  6067 ;;  Data            1    3[COMRAM] unsigned char 
  6068 ;; Return value:  Size  Location     Type
  6069 ;;                  1    wreg      void 
  6070 ;; Registers used:
  6071 ;;		wreg, status,2, status,0, cstack
  6072 ;; Tracked objects:
  6073 ;;		On entry : 0/0
  6074 ;;		On exit  : 0/0
  6075 ;;		Unchanged: 0/0
  6076 ;; Data sizes:     COMRAM   BANK0   BANK1   BANK2   BANK3   BANK4   BANK5   BANK6   BANK7   BANK8   BANK9  BANK10  BANK1
      +1  BANK12  BANK13  BANK14  BANK15
  6077 ;;      Params:         0       0       0       0       0       0       0       0       0       0       0       0       
      +0       0       0       0       0
  6078 ;;      Locals:         1       0       0       0       0       0       0       0       0       0       0       0       
      +0       0       0       0       0
  6079 ;;      Temps:          0       0       0       0       0       0       0       0       0       0       0       0       
      +0       0       0       0       0
  6080 ;;      Totals:         1       0       0       0       0       0       0       0       0       0       0       0       
      +0       0       0       0       0
  6081 ;;Total ram usage:        1 bytes
  6082 ;; Hardware stack levels used:    1
  6083 ;; Hardware stack levels required when called:    2
  6084 ;; This function calls:
  6085 ;;		_I2C_Wait
  6086 ;; This function is called by:
  6087 ;;		_MPU6050_Init
  6088 ;;		_MPU6050_Read
  6089 ;; This function uses a non-reentrant model
  6090 ;;
  6091                           
  6092                           	psect	text42
  6093  0014E8                     __ptext42:
  6094                           	callstack 0
  6095  0014E8                     _I2C_Master_Write:
  6096                           	callstack 27
  6097                           
  6098                           ;incstack = 0
  6099                           ;I2C_Master_Write@Data stored from wreg
  6100  0014E8  6E04               	movwf	I2C_Master_Write@Data^0,c
  6101  0014EA                     
  6102                           ;newmain.c: 1207: I2C_Wait();
  6103  0014EA  ECD0  F009         	call	_I2C_Wait	;wreg free
  6104  0014EE                     
  6105                           ;newmain.c: 1208: SSPBUF = Data;
  6106  0014EE  C004  FFC9         	movff	I2C_Master_Write@Data,4041	;volatile
  6107                           
  6108                           ;newmain.c: 1209: I2C_Wait();
  6109  0014F2  ECD0  F009         	call	_I2C_Wait	;wreg free
  6110  0014F6  0012               	return		;funcret
  6111  0014F8                     __end_of_I2C_Master_Write:
  6112                           	callstack 0
  6113                           
  6114 ;; *************** function _I2C_Master_Stop *****************
  6115 ;; Defined at:
  6116 ;;		line 1174 in file "newmain.c"
  6117 ;; Parameters:    Size  Location     Type
  6118 ;;		None
  6119 ;; Auto vars:     Size  Location     Type
  6120 ;;		None
  6121 ;; Return value:  Size  Location     Type
  6122 ;;                  1    wreg      void 
  6123 ;; Registers used:
  6124 ;;		wreg, status,2, status,0, cstack
  6125 ;; Tracked objects:
  6126 ;;		On entry : 0/0
  6127 ;;		On exit  : 0/0
  6128 ;;		Unchanged: 0/0
  6129 ;; Data sizes:     COMRAM   BANK0   BANK1   BANK2   BANK3   BANK4   BANK5   BANK6   BANK7   BANK8   BANK9  BANK10  BANK1
      +1  BANK12  BANK13  BANK14  BANK15
  6130 ;;      Params:         0       0       0       0       0       0       0       0       0       0       0       0       
      +0       0       0       0       0
  6131 ;;      Locals:         0       0       0       0       0       0       0       0       0       0       0       0       
      +0       0       0       0       0
  6132 ;;      Temps:          0       0       0       0       0       0       0       0       0       0       0       0       
      +0       0       0       0       0
  6133 ;;      Totals:         0       0       0       0       0       0       0       0       0       0       0       0       
      +0       0       0       0       0
  6134 ;;Total ram usage:        0 bytes
  6135 ;; Hardware stack levels used:    1
  6136 ;; Hardware stack levels required when called:    2
  6137 ;; This function calls:
  6138 ;;		_I2C_Wait
  6139 ;; This function is called by:
  6140 ;;		_MPU6050_Init
  6141 ;;		_MPU6050_Read
  6142 ;; This function uses a non-reentrant model
  6143 ;;
  6144                           
  6145                           	psect	text43
  6146  00153E                     __ptext43:
  6147                           	callstack 0
  6148  00153E                     _I2C_Master_Stop:
  6149                           	callstack 27
  6150  00153E                     
  6151                           ;newmain.c: 1177: I2C_Wait();
  6152  00153E  ECD0  F009         	call	_I2C_Wait	;wreg free
  6153  001542                     
  6154                           ;newmain.c: 1178: PEN = 1;
  6155  001542  84C5               	bsf	4037,2,c	;volatile
  6156  001544  0012               	return		;funcret
  6157  001546                     __end_of_I2C_Master_Stop:
  6158                           	callstack 0
  6159                           
  6160 ;; *************** function _I2C_Wait *****************
  6161 ;; Defined at:
  6162 ;;		line 1159 in file "newmain.c"
  6163 ;; Parameters:    Size  Location     Type
  6164 ;;		None
  6165 ;; Auto vars:     Size  Location     Type
  6166 ;;		None
  6167 ;; Return value:  Size  Location     Type
  6168 ;;                  1    wreg      void 
  6169 ;; Registers used:
  6170 ;;		wreg, status,2, status,0
  6171 ;; Tracked objects:
  6172 ;;		On entry : 0/0
  6173 ;;		On exit  : 0/0
  6174 ;;		Unchanged: 0/0
  6175 ;; Data sizes:     COMRAM   BANK0   BANK1   BANK2   BANK3   BANK4   BANK5   BANK6   BANK7   BANK8   BANK9  BANK10  BANK1
      +1  BANK12  BANK13  BANK14  BANK15
  6176 ;;      Params:         0       0       0       0       0       0       0       0       0       0       0       0       
      +0       0       0       0       0
  6177 ;;      Locals:         0       0       0       0       0       0       0       0       0       0       0       0       
      +0       0       0       0       0
  6178 ;;      Temps:          1       0       0       0       0       0       0       0       0       0       0       0       
      +0       0       0       0       0
  6179 ;;      Totals:         1       0       0       0       0       0       0       0       0       0       0       0       
      +0       0       0       0       0
  6180 ;;Total ram usage:        1 bytes
  6181 ;; Hardware stack levels used:    1
  6182 ;; Hardware stack levels required when called:    1
  6183 ;; This function calls:
  6184 ;;		Nothing
  6185 ;; This function is called by:
  6186 ;;		_I2C_Start
  6187 ;;		_I2C_Master_Stop
  6188 ;;		_I2C_ACK
  6189 ;;		_I2C_NACK
  6190 ;;		_I2C_Master_Write
  6191 ;;		_I2C_Restart
  6192 ;; This function uses a non-reentrant model
  6193 ;;
  6194                           
  6195                           	psect	text44
  6196  0013A0                     __ptext44:
  6197                           	callstack 0
  6198  0013A0                     _I2C_Wait:
  6199                           	callstack 27
  6200  0013A0                     l433:
  6201  0013A0  B4C7               	btfsc	199,2,c	;volatile
  6202  0013A2  EFD5  F009         	goto	u181
  6203  0013A6  EFD7  F009         	goto	u180
  6204  0013AA                     u181:
  6205  0013AA  EFD0  F009         	goto	l433
  6206  0013AE                     u180:
  6207  0013AE  CFC5 F003          	movff	4037,??_I2C_Wait	;volatile
  6208  0013B2  0E1F               	movlw	31
  6209  0013B4  1603               	andwf	??_I2C_Wait^0,f,c
  6210  0013B6  A4D8               	btfss	status,2,c
  6211  0013B8  EFE0  F009         	goto	u191
  6212  0013BC  EFE2  F009         	goto	u190
  6213  0013C0                     u191:
  6214  0013C0  EFD0  F009         	goto	l433
  6215  0013C4                     u190:
  6216  0013C4  0012               	return		;funcret
  6217  0013C6                     __end_of_I2C_Wait:
  6218                           	callstack 0
  6219                           
  6220 ;; *************** function _I2C_Master_Init *****************
  6221 ;; Defined at:
  6222 ;;		line 1149 in file "newmain.c"
  6223 ;; Parameters:    Size  Location     Type
  6224 ;;		None
  6225 ;; Auto vars:     Size  Location     Type
  6226 ;;		None
  6227 ;; Return value:  Size  Location     Type
  6228 ;;                  1    wreg      void 
  6229 ;; Registers used:
  6230 ;;		wreg, status,2
  6231 ;; Tracked objects:
  6232 ;;		On entry : 0/0
  6233 ;;		On exit  : 0/0
  6234 ;;		Unchanged: 0/0
  6235 ;; Data sizes:     COMRAM   BANK0   BANK1   BANK2   BANK3   BANK4   BANK5   BANK6   BANK7   BANK8   BANK9  BANK10  BANK1
      +1  BANK12  BANK13  BANK14  BANK15
  6236 ;;      Params:         0       0       0       0       0       0       0       0       0       0       0       0       
      +0       0       0       0       0
  6237 ;;      Locals:         0       0       0       0       0       0       0       0       0       0       0       0       
      +0       0       0       0       0
  6238 ;;      Temps:          0       0       0       0       0       0       0       0       0       0       0       0       
      +0       0       0       0       0
  6239 ;;      Totals:         0       0       0       0       0       0       0       0       0       0       0       0       
      +0       0       0       0       0
  6240 ;;Total ram usage:        0 bytes
  6241 ;; Hardware stack levels used:    1
  6242 ;; Hardware stack levels required when called:    1
  6243 ;; This function calls:
  6244 ;;		Nothing
  6245 ;; This function is called by:
  6246 ;;		_MPU6050_Init
  6247 ;; This function uses a non-reentrant model
  6248 ;;
  6249                           
  6250                           	psect	text45
  6251  0014C0                     __ptext45:
  6252                           	callstack 0
  6253  0014C0                     _I2C_Master_Init:
  6254                           	callstack 28
  6255  0014C0                     
  6256                           ;newmain.c: 1151: SSPCON1 = 0x28;
  6257  0014C0  0E28               	movlw	40
  6258  0014C2  6EC6               	movwf	198,c	;volatile
  6259                           
  6260                           ;newmain.c: 1152: SSPCON2 = 0x00;
  6261  0014C4  0E00               	movlw	0
  6262  0014C6  6EC5               	movwf	197,c	;volatile
  6263                           
  6264                           ;newmain.c: 1153: SSPSTAT = 0x00;
  6265  0014C8  0E00               	movlw	0
  6266  0014CA  6EC7               	movwf	199,c	;volatile
  6267                           
  6268                           ;newmain.c: 1154: SSPADD = ((8000000/4)/100000) - 1;
  6269  0014CC  0E13               	movlw	19
  6270  0014CE  6EC8               	movwf	200,c	;volatile
  6271  0014D0                     
  6272                           ;newmain.c: 1155: TRISC3 = 1;
  6273  0014D0  8694               	bsf	3988,3,c	;volatile
  6274  0014D2                     
  6275                           ;newmain.c: 1156: TRISC4 = 1;
  6276  0014D2  8894               	bsf	3988,4,c	;volatile
  6277  0014D4  0012               	return		;funcret
  6278  0014D6                     __end_of_I2C_Master_Init:
  6279                           	callstack 0
  6280                           
  6281 ;; *************** function _ISR *****************
  6282 ;; Defined at:
  6283 ;;		line 774 in file "newmain.c"
  6284 ;; Parameters:    Size  Location     Type
  6285 ;;		None
  6286 ;; Auto vars:     Size  Location     Type
  6287 ;;		None
  6288 ;; Return value:  Size  Location     Type
  6289 ;;                  1    wreg      void 
  6290 ;; Registers used:
  6291 ;;		wreg, fsr2l, fsr2h, status,2, status,0
  6292 ;; Tracked objects:
  6293 ;;		On entry : 0/0
  6294 ;;		On exit  : 0/0
  6295 ;;		Unchanged: 0/0
  6296 ;; Data sizes:     COMRAM   BANK0   BANK1   BANK2   BANK3   BANK4   BANK5   BANK6   BANK7   BANK8   BANK9  BANK10  BANK1
      +1  BANK12  BANK13  BANK14  BANK15
  6297 ;;      Params:         0       0       0       0       0       0       0       0       0       0       0       0       
      +0       0       0       0       0
  6298 ;;      Locals:         0       0       0       0       0       0       0       0       0       0       0       0       
      +0       0       0       0       0
  6299 ;;      Temps:          2       0       0       0       0       0       0       0       0       0       0       0       
      +0       0       0       0       0
  6300 ;;      Totals:         2       0       0       0       0       0       0       0       0       0       0       0       
      +0       0       0       0       0
  6301 ;;Total ram usage:        2 bytes
  6302 ;; Hardware stack levels used:    1
  6303 ;; This function calls:
  6304 ;;		Nothing
  6305 ;; This function is called by:
  6306 ;;		Interrupt level 2
  6307 ;; This function uses a non-reentrant model
  6308 ;;
  6309                           
  6310                           	psect	intcode
  6311  000008                     __pintcode:
  6312                           	callstack 0
  6313  000008                     _ISR:
  6314                           	callstack 24
  6315                           
  6316                           ;incstack = 0
  6317  000008  825B               	bsf	int$flags,1,c	;set compiler interrupt flag (level 2)
  6318  00000A  CFD9 F001          	movff	fsr2l,??_ISR
  6319  00000E  CFDA F002          	movff	fsr2h,??_ISR+1
  6320  000012                     
  6321                           ;newmain.c: 775: if(RCIF == 1){
  6322  000012  AA9E               	btfss	3998,5,c	;volatile
  6323  000014  EF0E  F000         	goto	i2u77_41
  6324  000018  EF10  F000         	goto	i2u77_40
  6325  00001C                     i2u77_41:
  6326  00001C  EF45  F000         	goto	i2l348
  6327  000020                     i2u77_40:
  6328  000020                     
  6329                           ;newmain.c: 776: tmp=RCREG;
  6330  000020  CFAE F039          	movff	4014,_tmp	;volatile
  6331                           
  6332                           ;newmain.c: 777: switch(tmp){
  6333  000024  EF39  F000         	goto	i2l2090
  6334  000028                     i2l2080:
  6335                           
  6336                           ;newmain.c: 779: if(data_len>1){
  6337  000028  5038               	movf	(_data_len+1)^0,w,c
  6338  00002A  E109               	bnz	i2u78_40
  6339  00002C  0E02               	movlw	2
  6340  00002E  5C37               	subwf	_data_len^0,w,c
  6341  000030  A0D8               	btfss	status,0,c
  6342  000032  EF1D  F000         	goto	i2u78_41
  6343  000036  EF1F  F000         	goto	i2u78_40
  6344  00003A                     i2u78_41:
  6345  00003A  EF44  F000         	goto	i2l345
  6346  00003E                     i2u78_40:
  6347  00003E                     
  6348                           ;newmain.c: 780: data_ready=1;
  6349  00003E  0E01               	movlw	1
  6350  000040  6E3A               	movwf	_data_ready^0,c
  6351  000042  EF44  F000         	goto	i2l345
  6352  000046                     i2l2084:
  6353                           
  6354                           ;newmain.c: 784: rx_buff[data_len]=0;
  6355  000046  0E5A               	movlw	low _rx_buff
  6356  000048  2437               	addwf	_data_len^0,w,c
  6357  00004A  6ED9               	movwf	fsr2l,c
  6358  00004C  0E02               	movlw	high _rx_buff
  6359  00004E  2038               	addwfc	(_data_len+1)^0,w,c
  6360  000050  6EDA               	movwf	fsr2h,c
  6361  000052  0E00               	movlw	0
  6362  000054  6EDF               	movwf	indf2,c
  6363                           
  6364                           ;newmain.c: 785: break;
  6365  000056  EF44  F000         	goto	i2l345
  6366  00005A                     i2l2086:
  6367                           
  6368                           ;newmain.c: 787: rx_buff[data_len]=tmp;
  6369  00005A  0E5A               	movlw	low _rx_buff
  6370  00005C  2437               	addwf	_data_len^0,w,c
  6371  00005E  6ED9               	movwf	fsr2l,c
  6372  000060  0E02               	movlw	high _rx_buff
  6373  000062  2038               	addwfc	(_data_len+1)^0,w,c
  6374  000064  6EDA               	movwf	fsr2h,c
  6375  000066  C039  FFDF         	movff	_tmp,indf2
  6376  00006A                     
  6377                           ;newmain.c: 788: data_len++;
  6378  00006A  4A37               	infsnz	_data_len^0,f,c
  6379  00006C  2A38               	incf	(_data_len+1)^0,f,c
  6380                           
  6381                           ;newmain.c: 790: }
  6382  00006E  EF44  F000         	goto	i2l345
  6383  000072                     i2l2090:
  6384  000072  5039               	movf	_tmp^0,w,c
  6385                           
  6386                           ; Switch size 1, requested type "simple"
  6387                           ; Number of cases is 2, Range of values is 10 to 13
  6388                           ; switch strategies available:
  6389                           ; Name         Instructions Cycles
  6390                           ; simple_byte            7     4 (average)
  6391                           ;	Chosen strategy is simple_byte
  6392  000074  0A0A               	xorlw	10	; case 10
  6393  000076  B4D8               	btfsc	status,2,c
  6394  000078  EF14  F000         	goto	i2l2080
  6395  00007C  0A07               	xorlw	7	; case 13
  6396  00007E  B4D8               	btfsc	status,2,c
  6397  000080  EF23  F000         	goto	i2l2084
  6398  000084  EF2D  F000         	goto	i2l2086
  6399  000088                     i2l345:
  6400                           
  6401                           ;newmain.c: 791: RCIF=0;
  6402  000088  9A9E               	bcf	3998,5,c	;volatile
  6403  00008A                     i2l348:
  6404  00008A  C002  FFDA         	movff	??_ISR+1,fsr2h
  6405  00008E  C001  FFD9         	movff	??_ISR,fsr2l
  6406  000092  925B               	bcf	int$flags,1,c	;clear compiler interrupt flag (level 2)
  6407  000094  0011               	retfie		f
  6408  000096                     __end_of_ISR:
  6409                           	callstack 0
  6410                           
  6411                           	psect	rparam
  6412  0000                     
  6413                           	psect	temp
  6414  00005B                     btemp:
  6415                           	callstack 0
  6416  00005B                     	ds	1
  6417  0000                     int$flags	set	btemp
  6418  0000                     wtemp8	set	btemp+1
  6419  0000                     ttemp5	set	btemp+1
  6420  0000                     ttemp6	set	btemp+4
  6421  0000                     ttemp7	set	btemp+8
  6422                           
  6423                           	psect	idloc
  6424                           
  6425                           ;Config register IDLOC0 @ 0x200000
  6426                           ;	unspecified, using default values
  6427  200000                     	org	2097152
  6428  200000  FF                 	db	255
  6429                           
  6430                           ;Config register IDLOC1 @ 0x200001
  6431                           ;	unspecified, using default values
  6432  200001                     	org	2097153
  6433  200001  FF                 	db	255
  6434                           
  6435                           ;Config register IDLOC2 @ 0x200002
  6436                           ;	unspecified, using default values
  6437  200002                     	org	2097154
  6438  200002  FF                 	db	255
  6439                           
  6440                           ;Config register IDLOC3 @ 0x200003
  6441                           ;	unspecified, using default values
  6442  200003                     	org	2097155
  6443  200003  FF                 	db	255
  6444                           
  6445                           ;Config register IDLOC4 @ 0x200004
  6446                           ;	unspecified, using default values
  6447  200004                     	org	2097156
  6448  200004  FF                 	db	255
  6449                           
  6450                           ;Config register IDLOC5 @ 0x200005
  6451                           ;	unspecified, using default values
  6452  200005                     	org	2097157
  6453  200005  FF                 	db	255
  6454                           
  6455                           ;Config register IDLOC6 @ 0x200006
  6456                           ;	unspecified, using default values
  6457  200006                     	org	2097158
  6458  200006  FF                 	db	255
  6459                           
  6460                           ;Config register IDLOC7 @ 0x200007
  6461                           ;	unspecified, using default values
  6462  200007                     	org	2097159
  6463  200007  FF                 	db	255
  6464                           
  6465                           	psect	config
  6466                           
  6467                           ; Padding undefined space
  6468  300000                     	org	3145728
  6469  300000  FF                 	db	255
  6470                           
  6471                           ;Config register CONFIG1H @ 0x300001
  6472                           ;	Oscillator Selection bits
  6473                           ;	OSC = HS, HS oscillator
  6474                           ;	Fail-Safe Clock Monitor Enable bit
  6475                           ;	FCMEN = OFF, Fail-Safe Clock Monitor disabled
  6476                           ;	Internal/External Oscillator Switchover bit
  6477                           ;	IESO = OFF, Two-Speed Start-up disabled
  6478  300001                     	org	3145729
  6479  300001  02                 	db	2
  6480                           
  6481                           ;Config register CONFIG2L @ 0x300002
  6482                           ;	Power-up Timer Enable bit
  6483                           ;	PWRT = OFF, PWRT disabled
  6484                           ;	Brown-out Reset Enable bits
  6485                           ;	BOREN = ON, Brown-out Reset enabled and controlled by software (SBOREN is enabled)
  6486                           ;	Brown-out Voltage bits
  6487                           ;	BORV = 3, Minimum setting
  6488  300002                     	org	3145730
  6489  300002  1B                 	db	27
  6490                           
  6491                           ;Config register CONFIG2H @ 0x300003
  6492                           ;	Watchdog Timer
  6493                           ;	WDT = OFF, WDT disabled (control is placed on the SWDTEN bit)
  6494                           ;	Watchdog Timer Postscale Select bits
  6495                           ;	WDTPS = 32768, 1:32768
  6496  300003                     	org	3145731
  6497  300003  1E                 	db	30
  6498                           
  6499                           ;Config register CONFIG3L @ 0x300004
  6500                           ;	Processor Data Memory Mode Select bits
  6501                           ;	MODE = MC, Microcontroller mode
  6502                           ;	Address Bus Width Select bits
  6503                           ;	ADDRBW = ADDR20BIT, 20-bit Address Bus
  6504                           ;	Data Bus Width Select bit
  6505                           ;	DATABW = DATA16BIT, 16-bit External Bus mode
  6506                           ;	External Bus Data Wait Enable bit
  6507                           ;	WAIT = OFF, Wait selections are unavailable for table reads and table writes
  6508  300004                     	org	3145732
  6509  300004  F3                 	db	243
  6510                           
  6511                           ;Config register CONFIG3H @ 0x300005
  6512                           ;	CCP2 MUX bit
  6513                           ;	CCP2MX = PORTC, ECCP2 input/output is multiplexed with RC1
  6514                           ;	ECCP MUX bit
  6515                           ;	ECCPMX = PORTE, ECCP1/3 (P1B/P1C/P3B/P3C) are multiplexed onto RE6, RE5, RE4 and RE3 r
      +                          espectively
  6516                           ;	Low-Power Timer1 Oscillator Enable bit
  6517                           ;	LPT1OSC = OFF, Timer1 configured for higher power operation
  6518                           ;	MCLR Pin Enable bit
  6519                           ;	MCLRE = ON, MCLR pin enabled; RG5 input pin disabled
  6520  300005                     	org	3145733
  6521  300005  83                 	db	131
  6522                           
  6523                           ;Config register CONFIG4L @ 0x300006
  6524                           ;	Stack Full/Underflow Reset Enable bit
  6525                           ;	STVREN = ON, Stack full/underflow will cause Reset
  6526                           ;	Single-Supply ICSP Enable bit
  6527                           ;	LVP = ON, Single-Supply ICSP enabled
  6528                           ;	Boot Block Size Select bits
  6529                           ;	BBSIZ = BB2K, 1K word (2 Kbytes) Boot Block size
  6530                           ;	Extended Instruction Set Enable bit
  6531                           ;	XINST = OFF, Instruction set extension and Indexed Addressing mode disabled (Legacy mo
      +                          de)
  6532                           ;	Background Debugger Enable bit
  6533                           ;	DEBUG = 0x1, unprogrammed default
  6534  300006                     	org	3145734
  6535  300006  85                 	db	133
  6536                           
  6537                           ; Padding undefined space
  6538  300007                     	org	3145735
  6539  300007  FF                 	db	255
  6540                           
  6541                           ;Config register CONFIG5L @ 0x300008
  6542                           ;	Code Protection bit Block 0
  6543                           ;	CP0 = OFF, Block 0 (000800, 001000 or 002000-003FFFh) not code-protected
  6544                           ;	Code Protection bit Block 1
  6545                           ;	CP1 = OFF, Block 1 (004000-007FFFh) not code-protected
  6546                           ;	Code Protection bit Block 2
  6547                           ;	CP2 = OFF, Block 2 (008000-00BFFFh) not code-protected
  6548  300008                     	org	3145736
  6549  300008  FF                 	db	255
  6550                           
  6551                           ;Config register CONFIG5H @ 0x300009
  6552                           ;	Boot Block Code Protection bit
  6553                           ;	CPB = OFF, Boot Block (000000-0007FFh) not code-protected
  6554                           ;	Data EEPROM Code Protection bit
  6555                           ;	CPD = OFF, Data EEPROM not code-protected
  6556  300009                     	org	3145737
  6557  300009  C0                 	db	192
  6558                           
  6559                           ;Config register CONFIG6L @ 0x30000A
  6560                           ;	Write Protection bit Block 0
  6561                           ;	WRT0 = OFF, Block 0 (000800, 001000 or 002000-003FFFh) not write-protected
  6562                           ;	Write Protection bit Block 1
  6563                           ;	WRT1 = OFF, Block 1 (004000-007FFFh) not write-protected
  6564                           ;	Write Protection bit Block 2
  6565                           ;	WRT2 = OFF, Block 2 (008000-00BFFFh) not write-protected
  6566  30000A                     	org	3145738
  6567  30000A  FF                 	db	255
  6568                           
  6569                           ;Config register CONFIG6H @ 0x30000B
  6570                           ;	Configuration Register Write Protection bit
  6571                           ;	WRTC = OFF, Configuration registers (300000-3000FFh) not write-protected
  6572                           ;	Boot Block Write Protection bit
  6573                           ;	WRTB = OFF, Boot Block (000000-007FFF, 000FFF or 001FFFh) not write-protected
  6574                           ;	Data EEPROM Write Protection bit
  6575                           ;	WRTD = OFF, Data EEPROM not write-protected
  6576  30000B                     	org	3145739
  6577  30000B  E0                 	db	224
  6578                           
  6579                           ;Config register CONFIG7L @ 0x30000C
  6580                           ;	Table Read Protection bit Block 0
  6581                           ;	EBTR0 = OFF, Block 0 (000800, 001000 or 002000-003FFFh) not protected from table reads
      +                           executed in other blocks
  6582                           ;	Table Read Protection bit Block 1
  6583                           ;	EBTR1 = OFF, Block 1 (004000-007FFFh) not protected from table reads executed in other
      +                           blocks
  6584                           ;	Table Read Protection bit Block 2
  6585                           ;	EBTR2 = OFF, Block 2 (008000-00BFFFh) not protected from table reads executed in other
      +                           blocks
  6586  30000C                     	org	3145740
  6587  30000C  FF                 	db	255
  6588                           
  6589                           ;Config register CONFIG7H @ 0x30000D
  6590                           ;	Boot Block Table Read Protection bit
  6591                           ;	EBTRB = OFF, Boot Block (000000-007FFF, 000FFF or 001FFFh) not protected from table re
      +                          ads executed in other blocks
  6592  30000D                     	org	3145741
  6593  30000D  40                 	db	64
  6594                           tosu	equ	0xFFF
  6595                           tosh	equ	0xFFE
  6596                           tosl	equ	0xFFD
  6597                           stkptr	equ	0xFFC
  6598                           pclatu	equ	0xFFB
  6599                           pclath	equ	0xFFA
  6600                           pcl	equ	0xFF9
  6601                           tblptru	equ	0xFF8
  6602                           tblptrh	equ	0xFF7
  6603                           tblptrl	equ	0xFF6
  6604                           tablat	equ	0xFF5
  6605                           prodh	equ	0xFF4
  6606                           prodl	equ	0xFF3
  6607                           indf0	equ	0xFEF
  6608                           postinc0	equ	0xFEE
  6609                           postdec0	equ	0xFED
  6610                           preinc0	equ	0xFEC
  6611                           plusw0	equ	0xFEB
  6612                           fsr0h	equ	0xFEA
  6613                           fsr0l	equ	0xFE9
  6614                           wreg	equ	0xFE8
  6615                           indf1	equ	0xFE7
  6616                           postinc1	equ	0xFE6
  6617                           postdec1	equ	0xFE5
  6618                           preinc1	equ	0xFE4
  6619                           plusw1	equ	0xFE3
  6620                           fsr1h	equ	0xFE2
  6621                           fsr1l	equ	0xFE1
  6622                           bsr	equ	0xFE0
  6623                           indf2	equ	0xFDF
  6624                           postinc2	equ	0xFDE
  6625                           postdec2	equ	0xFDD
  6626                           preinc2	equ	0xFDC
  6627                           plusw2	equ	0xFDB
  6628                           fsr2h	equ	0xFDA
  6629                           fsr2l	equ	0xFD9
  6630                           status	equ	0xFD8

Data Sizes:
    Strings     269
    Constant    146
    Data        192
    BSS         686
    Persistent  0
    Stack       0

Auto Spaces:
    Space          Size  Autos    Used
    COMRAM           94     50      90
    BANK0           160    110     144
    BANK1           256      0     214
    BANK2           256      0      90
    BANK3           256      0       0
    BANK4           256      0       0
    BANK5           256      0       0
    BANK6           256      0       0
    BANK7           256      0       0
    BANK8           256      0       0
    BANK9           256      0       0
    BANK10          256      0       0
    BANK11          256      0       0
    BANK12          256      0       0
    BANK13          256      0       0
    BANK14          256      0       0
    BANK15           96      0       0

Pointer List with Targets:

    strncmp@s2	PTR const unsigned char  size(2) Largest target is 9
		 -> STR_48(CODE[2]), STR_47(CODE[6]), STR_40(CODE[2]), STR_39(CODE[6]), 
		 -> STR_33(CODE[2]), STR_32(CODE[6]), STR_15(CODE[2]), STR_14(CODE[9]), 
		 -> STR_13(CODE[2]), STR_12(CODE[8]), STR_11(CODE[2]), STR_10(CODE[8]), 
		 -> STR_9(CODE[2]), STR_8(CODE[7]), 

    strncmp@s1	PTR const unsigned char  size(2) Largest target is 500
		 -> NULL(NULL[0]), rx_buff(BIGRAM[500]), 

    strchr@ptr	PTR const unsigned char  size(2) Largest target is 500
		 -> NULL(NULL[0]), rx_buff(BIGRAM[500]), 

    sp__strchr	PTR unsigned char  size(2) Largest target is 500
		 -> NULL(NULL[0]), rx_buff(BIGRAM[500]), 

    strstr@s2	PTR const unsigned char  size(2) Largest target is 9
		 -> STR_48(CODE[2]), STR_47(CODE[6]), STR_40(CODE[2]), STR_39(CODE[6]), 
		 -> STR_33(CODE[2]), STR_32(CODE[6]), STR_15(CODE[2]), STR_14(CODE[9]), 
		 -> STR_13(CODE[2]), STR_12(CODE[8]), STR_11(CODE[2]), STR_10(CODE[8]), 
		 -> STR_9(CODE[2]), STR_8(CODE[7]), 

    strstr@s1	PTR const unsigned char  size(2) Largest target is 500
		 -> NULL(NULL[0]), rx_buff(BIGRAM[500]), 

    strncpy@from	PTR const unsigned char  size(2) Largest target is 500
		 -> NULL(NULL[0]), rx_buff(BIGRAM[500]), 

    strncpy@to	PTR unsigned char  size(2) Largest target is 30
		 -> send_req_data@data_of_direction(BANK0[10]), send_data_when_ordered@connection_id_(COMRAM[6]), connection_id(COMRAM[6]), STAMAC(BANK1[30]), 
		 -> STAIP(BANK1[30]), APMAC(BANK1[30]), APIP(BANK1[30]), 

    strncpy@cp	PTR unsigned char  size(2) Largest target is 30
		 -> send_req_data@data_of_direction(BANK0[10]), send_data_when_ordered@connection_id_(COMRAM[6]), connection_id(COMRAM[6]), STAMAC(BANK1[30]), 
		 -> STAIP(BANK1[30]), APMAC(BANK1[30]), APIP(BANK1[30]), 

    strlen@s	PTR const unsigned char  size(2) Largest target is 500
		 -> STR_52(CODE[5]), STR_51(CODE[6]), STR_50(CODE[5]), STR_49(CODE[3]), 
		 -> STR_48(CODE[2]), STR_47(CODE[6]), send_req_data@data_of_direction(BANK0[10]), send_req_data@link_req(BANK0[90]), 
		 -> STR_40(CODE[2]), STR_39(CODE[6]), STR_38(CODE[5]), STR_33(CODE[2]), 
		 -> STR_32(CODE[6]), STR_31(CODE[5]), webpage_text2(BANK0[6]), adc_value_text(COMRAM[6]), 
		 -> webpage_text1(COMRAM[5]), STR_23(CODE[3]), STR_15(CODE[2]), STR_14(CODE[9]), 
		 -> STR_13(CODE[2]), STR_12(CODE[8]), STR_11(CODE[2]), STR_10(CODE[8]), 
		 -> STR_9(CODE[2]), STR_8(CODE[7]), STR_6(CODE[2]), STR_5(CODE[6]), 
		 -> STR_4(CODE[10]), STR_3(CODE[3]), rx_buff(BIGRAM[500]), 

    strlen@cp	PTR const unsigned char  size(2) Largest target is 500
		 -> STR_52(CODE[5]), STR_51(CODE[6]), STR_50(CODE[5]), STR_49(CODE[3]), 
		 -> STR_48(CODE[2]), STR_47(CODE[6]), send_req_data@data_of_direction(BANK0[10]), send_req_data@link_req(BANK0[90]), 
		 -> STR_40(CODE[2]), STR_39(CODE[6]), STR_38(CODE[5]), STR_33(CODE[2]), 
		 -> STR_32(CODE[6]), STR_31(CODE[5]), webpage_text2(BANK0[6]), adc_value_text(COMRAM[6]), 
		 -> webpage_text1(COMRAM[5]), STR_23(CODE[3]), STR_15(CODE[2]), STR_14(CODE[9]), 
		 -> STR_13(CODE[2]), STR_12(CODE[8]), STR_11(CODE[2]), STR_10(CODE[8]), 
		 -> STR_9(CODE[2]), STR_8(CODE[7]), STR_6(CODE[2]), STR_5(CODE[6]), 
		 -> STR_4(CODE[10]), STR_3(CODE[3]), rx_buff(BIGRAM[500]), 

    strcpy@from	PTR const unsigned char  size(2) Largest target is 13
		 -> STR_44(CODE[12]), STR_42(CODE[12]), STR_36(CODE[12]), STR_34(CODE[13]), 
		 -> STR_28(CODE[12]), 

    strcpy@to	PTR unsigned char  size(2) Largest target is 20
		 -> send_data_direct@send_command_1(COMRAM[0]), close_command(BANK1[20]), send_command(BANK0[20]), 

    strcpy@cp	PTR unsigned char  size(2) Largest target is 20
		 -> send_data_direct@send_command_1(COMRAM[0]), close_command(BANK1[20]), send_command(BANK0[20]), 

    strcat@from	PTR const unsigned char  size(2) Largest target is 10
		 -> send_req_data@id_(BANK0[8]), STR_46(CODE[3]), STR_45(CODE[2]), STR_43(CODE[3]), 
		 -> send_data_when_ordered@connection_id_(COMRAM[6]), STR_37(CODE[2]), get_sending_command@_send_data_size(COMRAM[10]), connection_id(COMRAM[6]), 
		 -> STR_29(CODE[3]), size_data_text(COMRAM[6]), 

    strcat@to	PTR unsigned char  size(2) Largest target is 20
		 -> send_data_direct@send_command_1(COMRAM[0]), close_command(BANK1[20]), send_command(BANK0[20]), 

    strcat@cp	PTR unsigned char  size(2) Largest target is 20
		 -> send_data_direct@send_command_1(COMRAM[0]), close_command(BANK1[20]), send_command(BANK0[20]), 

    memset@p1	PTR void  size(2) Largest target is 500
		 -> connection_id(COMRAM[6]), rx_buff(BIGRAM[500]), 

    memset@p	PTR unsigned char  size(2) Largest target is 500
		 -> connection_id(COMRAM[6]), rx_buff(BIGRAM[500]), 

    sprintf@f	PTR const unsigned char  size(2) Largest target is 3
		 -> STR_41(CODE[3]), STR_35(CODE[3]), STR_27(CODE[3]), 

    sprintf@sp	PTR unsigned char  size(2) Largest target is 10
		 -> get_sending_command@_send_data_size(COMRAM[10]), size_data_text(COMRAM[6]), 

    sprintf@ap	PTR void [1] size(2) Largest target is 2
		 -> ?_sprintf(COMRAM[2]), 

    send_data_direct@id_str	PTR unsigned char  size(2) Largest target is 8
		 -> send_req_data@id_(BANK0[8]), send_data_when_ordered@connection_id_(COMRAM[6]), 

    send_data_direct@data_1	PTR unsigned char  size(2) Largest target is 90
		 -> send_req_data@link_req(BANK0[90]), 

    sp__strcat	PTR unsigned char  size(2) Largest target is 20
		 -> send_data_direct@send_command_1(COMRAM[0]), close_command(BANK1[20]), send_command(BANK0[20]), 

    sp__strcpy	PTR unsigned char  size(2) Largest target is 20
		 -> send_data_direct@send_command_1(COMRAM[0]), close_command(BANK1[20]), send_command(BANK0[20]), 

    sp__strncpy	PTR unsigned char  size(2) Largest target is 30
		 -> send_req_data@data_of_direction(BANK0[10]), send_data_when_ordered@connection_id_(COMRAM[6]), connection_id(COMRAM[6]), STAMAC(BANK1[30]), 
		 -> STAIP(BANK1[30]), APMAC(BANK1[30]), APIP(BANK1[30]), 

    find_get_string@get_text	PTR unsigned char  size(2) Largest target is 30
		 -> send_req_data@data_of_direction(BANK0[10]), send_data_when_ordered@connection_id_(COMRAM[6]), connection_id(COMRAM[6]), STAMAC(BANK1[30]), 
		 -> STAIP(BANK1[30]), APMAC(BANK1[30]), APIP(BANK1[30]), 

    find_get_string@to	PTR unsigned char  size(2) Largest target is 2
		 -> STR_48(CODE[2]), STR_40(CODE[2]), STR_33(CODE[2]), STR_15(CODE[2]), 
		 -> STR_13(CODE[2]), STR_11(CODE[2]), STR_9(CODE[2]), 

    find_get_string@p2	PTR unsigned char  size(2) Largest target is 500
		 -> NULL(NULL[0]), rx_buff(BIGRAM[500]), 

    sp__strstr	PTR unsigned char  size(2) Largest target is 500
		 -> NULL(NULL[0]), rx_buff(BIGRAM[500]), 

    find_get_string@from	PTR unsigned char  size(2) Largest target is 9
		 -> STR_47(CODE[6]), STR_39(CODE[6]), STR_32(CODE[6]), STR_14(CODE[9]), 
		 -> STR_12(CODE[8]), STR_10(CODE[8]), STR_8(CODE[7]), 

    find_get_string@string	PTR unsigned char  size(2) Largest target is 500
		 -> rx_buff(BIGRAM[500]), 

    find_get_string@p1	PTR unsigned char  size(2) Largest target is 500
		 -> NULL(NULL[0]), rx_buff(BIGRAM[500]), 

    find_string@string_find	PTR unsigned char  size(2) Largest target is 10
		 -> STR_52(CODE[5]), STR_51(CODE[6]), STR_50(CODE[5]), STR_49(CODE[3]), 
		 -> STR_38(CODE[5]), STR_31(CODE[5]), STR_23(CODE[3]), STR_6(CODE[2]), 
		 -> STR_5(CODE[6]), STR_4(CODE[10]), STR_3(CODE[3]), 

    find_string@string	PTR unsigned char  size(2) Largest target is 500
		 -> send_req_data@data_of_direction(BANK0[10]), rx_buff(BIGRAM[500]), 

    sp__memset	PTR void  size(2) Largest target is 500
		 -> connection_id(COMRAM[6]), rx_buff(BIGRAM[500]), 

    UART_Write_AT@_data	PTR unsigned char  size(2) Largest target is 30
		 -> close_command(BANK1[20]), send_command(BANK0[20]), STR_26(CODE[3]), STR_25(CODE[14]), 
		 -> code(BANK1[30]), STR_24(CODE[16]), STR_21(CODE[11]), STR_20(CODE[10]), 
		 -> STR_19(CODE[12]), STR_18(CODE[12]), STR_17(CODE[12]), STR_16(CODE[9]), 
		 -> STR_7(CODE[9]), 

    uart_text_write@RF6	PTR unsigned char  size(2) Largest target is 90
		 -> send_req_data@link_req(BANK0[90]), tcp_web(BANK1[44]), send_data_direct@send_command_1(COMRAM[0]), close_command(BANK1[20]), 
		 -> counter_text(COMRAM[5]), STR_30(CODE[14]), send_command(BANK0[20]), adc_value_text(COMRAM[6]), 
		 -> STR_26(CODE[3]), STR_25(CODE[14]), code(BANK1[30]), STR_24(CODE[16]), 
		 -> port(CODE[3]), STR_22(CODE[15]), STR_21(CODE[11]), STR_20(CODE[10]), 
		 -> STR_19(CODE[12]), STR_18(CODE[12]), STR_17(CODE[12]), STR_16(CODE[9]), 
		 -> STR_7(CODE[9]), STR_2(CODE[11]), STR_1(CODE[4]), 

    password	PTR const unsigned char  size(2) Largest target is 11
		 -> STR_2(CODE[11]), 

    SSID	PTR const unsigned char  size(2) Largest target is 4
		 -> STR_1(CODE[4]), 


Critical Paths under _main in COMRAM

    _main->_send_req_data
    _send_req_data->_send_data_direct
    _send_data_direct->_sprintf
    _sprintf->___lwmod
    ___lwmod->___lwdiv
    _check_ok->_response_success
    _find_get_string->_strstr
    _strstr->_strncmp
    _strncmp->_strlen
    _connected_to_thingspeak->_uart_text_write
    _WiFi_Config->_ap_and_station_mode
    _WiFi_Config->_connected_to_ap
    _WiFi_Config->_disconnect_ap
    _WiFi_Config->_mult_connection
    _mult_connection->_response_success
    _disconnect_ap->_response_success
    _connected_to_ap->_response_success
    _new_line->_uart_char_write
    _check_connected_ap->_response_success
    _ap_and_station_mode->_response_success
    _response_success->_find_string
    _reset_buff->_memset
    _find_string->_strlen
    _UART_Write_AT->_uart_text_write
    _MPU6050_Read->_I2C_Master_Write
    _I2C_NACK->_I2C_Wait
    _I2C_ACK->_I2C_Wait
    _MPU6050_Init->_I2C_Master_Write
    _I2C_Start->_I2C_Wait
    _I2C_Master_Write->_I2C_Wait
    _I2C_Master_Stop->_I2C_Wait

Critical Paths under _ISR in COMRAM

    None.

Critical Paths under _main in BANK0

    _main->_send_req_data

Critical Paths under _ISR in BANK0

    None.

Critical Paths under _main in BANK1

    None.

Critical Paths under _ISR in BANK1

    None.

Critical Paths under _main in BANK2

    None.

Critical Paths under _ISR in BANK2

    None.

Critical Paths under _main in BANK3

    None.

Critical Paths under _ISR in BANK3

    None.

Critical Paths under _main in BANK4

    None.

Critical Paths under _ISR in BANK4

    None.

Critical Paths under _main in BANK5

    None.

Critical Paths under _ISR in BANK5

    None.

Critical Paths under _main in BANK6

    None.

Critical Paths under _ISR in BANK6

    None.

Critical Paths under _main in BANK7

    None.

Critical Paths under _ISR in BANK7

    None.

Critical Paths under _main in BANK8

    None.

Critical Paths under _ISR in BANK8

    None.

Critical Paths under _main in BANK9

    None.

Critical Paths under _ISR in BANK9

    None.

Critical Paths under _main in BANK10

    None.

Critical Paths under _ISR in BANK10

    None.

Critical Paths under _main in BANK11

    None.

Critical Paths under _ISR in BANK11

    None.

Critical Paths under _main in BANK12

    None.

Critical Paths under _ISR in BANK12

    None.

Critical Paths under _main in BANK13

    None.

Critical Paths under _ISR in BANK13

    None.

Critical Paths under _main in BANK14

    None.

Critical Paths under _ISR in BANK14

    None.

Critical Paths under _main in BANK15

    None.

Critical Paths under _ISR in BANK15

    None.

Call Graph Tables:

 ---------------------------------------------------------------------------------
 (Depth) Function   	        Calls       Base Space   Used Autos Params    Refs
 ---------------------------------------------------------------------------------
 (0) _main                                                 8     8      0   57178
                                             42 COMRAM     8     8      0
                       _MPU6050_Init
                       _MPU6050_Read
                        _WiFi_Config
                             _config
            _connected_to_thingspeak
                            _do_move
                      _send_req_data
 ---------------------------------------------------------------------------------
 (1) _send_req_data                                      113   111      2   20289
                                             39 COMRAM     3     1      2
                                              0 BANK0    110   110      0
                    _find_get_string
                        _find_string
                         _reset_buff
                   _send_data_direct
 ---------------------------------------------------------------------------------
 (2) _send_data_direct                                    12     6      6   11038
                                             27 COMRAM    12     6      6
                           _check_ok
                           _new_line
                         _reset_buff
                            _sprintf
                             _strcat
                             _strcpy
                             _strlen
                    _uart_text_write
 ---------------------------------------------------------------------------------
 (3) _strcpy                                               6     2      4     835
                                              2 COMRAM     6     2      4
 ---------------------------------------------------------------------------------
 (3) _strcat                                               6     2      4    1922
                                              2 COMRAM     6     2      4
 ---------------------------------------------------------------------------------
 (3) _sprintf                                             22    16      6    1468
                                             14 COMRAM    13     7      6
                            ___lwdiv
                            ___lwmod
 ---------------------------------------------------------------------------------
 (4) ___lwmod                                              5     1      4     311
                                              9 COMRAM     5     1      4
                            ___lwdiv (ARG)
 ---------------------------------------------------------------------------------
 (4) ___lwdiv                                              7     3      4     314
                                              2 COMRAM     7     3      4
 ---------------------------------------------------------------------------------
 (3) _check_ok                                             0     0      0    3451
                   _response_success
 ---------------------------------------------------------------------------------
 (2) _find_get_string                                     15     5     10    5632
                                             17 COMRAM    15     5     10
                            _strncpy
                             _strstr
 ---------------------------------------------------------------------------------
 (3) _strstr                                               4     0      4    1781
                                             13 COMRAM     4     0      4
                             _strchr
                             _strlen
                            _strncmp
 ---------------------------------------------------------------------------------
 (4) _strncmp                                              7     1      6     362
                                              6 COMRAM     7     1      6
                             _strlen (ARG)
 ---------------------------------------------------------------------------------
 (4) _strchr                                               5     1      4     240
                                              2 COMRAM     5     1      4
 ---------------------------------------------------------------------------------
 (3) _strncpy                                              8     2      6     369
                                              2 COMRAM     8     2      6
 ---------------------------------------------------------------------------------
 (1) _do_move                                              6     4      2     195
                                              2 COMRAM     6     4      2
 ---------------------------------------------------------------------------------
 (1) _connected_to_thingspeak                              2     2      0    1002
                                              8 COMRAM     2     2      0
                    _uart_text_write
 ---------------------------------------------------------------------------------
 (1) _config                                               2     2      0       0
                                              2 COMRAM     2     2      0
                          _uart_init
 ---------------------------------------------------------------------------------
 (1) _WiFi_Config                                          2     2      0   35516
                                             24 COMRAM     2     2      0
                      _UART_Write_AT
                _ap_and_station_mode
                 _check_connected_ap
                    _connected_to_ap
                      _disconnect_ap
                             _memset
                    _mult_connection
                         _reset_buff
                         _reset_wifi
                   _response_success
 ---------------------------------------------------------------------------------
 (2) _reset_wifi                                           2     2      0       0
                                              2 COMRAM     2     2      0
 ---------------------------------------------------------------------------------
 (2) _mult_connection                                      2     2      0    5485
                                             22 COMRAM     2     2      0
                      _UART_Write_AT
                   _response_success
 ---------------------------------------------------------------------------------
 (2) _disconnect_ap                                        2     2      0    5485
                                             22 COMRAM     2     2      0
                      _UART_Write_AT
                   _response_success
 ---------------------------------------------------------------------------------
 (2) _connected_to_ap                                      2     2      0    6531
                                             22 COMRAM     2     2      0
                      _UART_Write_AT
                           _new_line
                   _response_success
                    _uart_char_write
                    _uart_text_write
 ---------------------------------------------------------------------------------
 (3) _new_line                                             0     0      0      22
                    _uart_char_write
 ---------------------------------------------------------------------------------
 (2) _check_connected_ap                                   0     0      0    5485
                      _UART_Write_AT
                   _response_success
 ---------------------------------------------------------------------------------
 (2) _ap_and_station_mode                                  2     2      0    5485
                                             22 COMRAM     2     2      0
                      _UART_Write_AT
                   _response_success
 ---------------------------------------------------------------------------------
 (4) _response_success                                     1     1      0    3451
                                             21 COMRAM     1     1      0
                        _find_string
                         _reset_buff
                      _uart_read_int
 ---------------------------------------------------------------------------------
 (5) _uart_read_int                                        0     0      0       0
 ---------------------------------------------------------------------------------
 (3) _reset_buff                                           0     0      0     780
                             _memset
 ---------------------------------------------------------------------------------
 (4) _memset                                               8     2      6     780
                                              2 COMRAM     8     2      6
 ---------------------------------------------------------------------------------
 (5) _find_string                                         15    11      4    2644
                                              6 COMRAM    15    11      4
                             _strlen
 ---------------------------------------------------------------------------------
 (3) _strlen                                               4     2      2     698
                                              2 COMRAM     4     2      2
 ---------------------------------------------------------------------------------
 (3) _UART_Write_AT                                        2     0      2    2034
                                              8 COMRAM     2     0      2
                    _uart_char_write
                    _uart_text_write
 ---------------------------------------------------------------------------------
 (3) _uart_text_write                                      6     4      2    1002
                                              2 COMRAM     6     4      2
 ---------------------------------------------------------------------------------
 (4) _uart_char_write                                      1     1      0      22
                                              2 COMRAM     1     1      0
                          _uart_init
 ---------------------------------------------------------------------------------
 (5) _uart_init                                            0     0      0       0
 ---------------------------------------------------------------------------------
 (1) _MPU6050_Read                                        60    58      2      44
                                              4 COMRAM    20    18      2
                    _I2C_Master_Stop
                   _I2C_Master_Write
                           _I2C_Read
                      _I2C_Read_NACK
                          _I2C_Start
 ---------------------------------------------------------------------------------
 (2) _I2C_Read_NACK                                        0     0      0       0
                           _I2C_NACK
 ---------------------------------------------------------------------------------
 (3) _I2C_NACK                                             0     0      0       0
                           _I2C_Wait
 ---------------------------------------------------------------------------------
 (2) _I2C_Read                                             0     0      0       0
                            _I2C_ACK
 ---------------------------------------------------------------------------------
 (3) _I2C_ACK                                              0     0      0       0
                           _I2C_Wait
 ---------------------------------------------------------------------------------
 (1) _MPU6050_Init                                         2     2      0      15
                                              4 COMRAM     2     2      0
                    _I2C_Master_Init
                    _I2C_Master_Stop
                   _I2C_Master_Write
                          _I2C_Start
 ---------------------------------------------------------------------------------
 (2) _I2C_Start                                            0     0      0       0
                           _I2C_Wait
 ---------------------------------------------------------------------------------
 (2) _I2C_Master_Write                                     1     1      0      15
                                              3 COMRAM     1     1      0
                           _I2C_Wait
 ---------------------------------------------------------------------------------
 (2) _I2C_Master_Stop                                      0     0      0       0
                           _I2C_Wait
 ---------------------------------------------------------------------------------
 (3) _I2C_Wait                                             1     1      0       0
                                              2 COMRAM     1     1      0
 ---------------------------------------------------------------------------------
 (2) _I2C_Master_Init                                      0     0      0       0
 ---------------------------------------------------------------------------------
 Estimated maximum stack depth 5
 ---------------------------------------------------------------------------------
 (Depth) Function   	        Calls       Base Space   Used Autos Params    Refs
 ---------------------------------------------------------------------------------
 (7) _ISR                                                  2     2      0       0
                                              0 COMRAM     2     2      0
 ---------------------------------------------------------------------------------
 Estimated maximum stack depth 7
 ---------------------------------------------------------------------------------

 Call Graph Graphs:

 _main (ROOT)
   _MPU6050_Init
     _I2C_Master_Init
     _I2C_Master_Stop
       _I2C_Wait
     _I2C_Master_Write
       _I2C_Wait
     _I2C_Start
       _I2C_Wait
   _MPU6050_Read
     _I2C_Master_Stop
       _I2C_Wait
     _I2C_Master_Write
       _I2C_Wait
     _I2C_Read
       _I2C_ACK
         _I2C_Wait
     _I2C_Read_NACK
       _I2C_NACK
         _I2C_Wait
     _I2C_Start
       _I2C_Wait
   _WiFi_Config
     _UART_Write_AT
       _uart_char_write
         _uart_init
       _uart_text_write
     _ap_and_station_mode
       _UART_Write_AT
         _uart_char_write
           _uart_init
         _uart_text_write
       _response_success
         _find_string
           _strlen
         _reset_buff
           _memset
         _uart_read_int
     _check_connected_ap
       _UART_Write_AT
         _uart_char_write
           _uart_init
         _uart_text_write
       _response_success
         _find_string
           _strlen
         _reset_buff
           _memset
         _uart_read_int
     _connected_to_ap
       _UART_Write_AT
         _uart_char_write
           _uart_init
         _uart_text_write
       _new_line
         _uart_char_write
           _uart_init
       _response_success
         _find_string
           _strlen
         _reset_buff
           _memset
         _uart_read_int
       _uart_char_write
         _uart_init
       _uart_text_write
     _disconnect_ap
       _UART_Write_AT
         _uart_char_write
           _uart_init
         _uart_text_write
       _response_success
         _find_string
           _strlen
         _reset_buff
           _memset
         _uart_read_int
     _memset
     _mult_connection
       _UART_Write_AT
         _uart_char_write
           _uart_init
         _uart_text_write
       _response_success
         _find_string
           _strlen
         _reset_buff
           _memset
         _uart_read_int
     _reset_buff
       _memset
     _reset_wifi
     _response_success
       _find_string
         _strlen
       _reset_buff
         _memset
       _uart_read_int
   _config
     _uart_init
   _connected_to_thingspeak
     _uart_text_write
   _do_move
   _send_req_data
     _find_get_string
       _strncpy
       _strstr
         _strchr
         _strlen
         _strncmp
           _strlen (ARG)
     _find_string
       _strlen
     _reset_buff
       _memset
     _send_data_direct
       _check_ok
         _response_success
           _find_string
             _strlen
           _reset_buff
             _memset
           _uart_read_int
       _new_line
         _uart_char_write
           _uart_init
       _reset_buff
         _memset
       _sprintf
         ___lwdiv
         ___lwmod
           ___lwdiv (ARG)
       _strcat
       _strcpy
       _strlen
       _uart_text_write

 _ISR (ROOT)

 Address spaces:
Name               Size   Autos  Total    Cost      Usage
BIGRAM             F5F      0     1F4      37       12.7%
EEDATA             400      0       0       0        0.0%
BITBANK14          100      0       0      33        0.0%
BANK14             100      0       0      34        0.0%
BITBANK13          100      0       0      30        0.0%
BANK13             100      0       0      31        0.0%
BITBANK12          100      0       0      28        0.0%
BANK12             100      0       0      29        0.0%
BITBANK11          100      0       0      26        0.0%
BANK11             100      0       0      27        0.0%
BITBANK10          100      0       0      24        0.0%
BANK10             100      0       0      25        0.0%
BITBANK9           100      0       0      22        0.0%
BANK9              100      0       0      23        0.0%
BITBANK8           100      0       0      20        0.0%
BANK8              100      0       0      21        0.0%
BITBANK7           100      0       0      18        0.0%
BANK7              100      0       0      19        0.0%
BITBANK6           100      0       0      16        0.0%
BANK6              100      0       0      17        0.0%
BITBANK5           100      0       0      14        0.0%
BANK5              100      0       0      15        0.0%
BITBANK4           100      0       0      12        0.0%
BANK4              100      0       0      13        0.0%
BITBANK3           100      0       0      10        0.0%
BANK3              100      0       0      11        0.0%
BITBANK2           100      0       0       8        0.0%
BANK2              100      0      5A       9       35.2%
BITBANK1           100      0       0       6        0.0%
BANK1              100      0      D6       7       83.6%
BITBANK0            A0      0       0       4        0.0%
BANK0               A0     6E      90       5       90.0%
BITBANK15           60      0       0      35        0.0%
BANK15              60      0       0      36        0.0%
BITCOMRAM           5E      0       0       0        0.0%
COMRAM              5E     32      5A       1       95.7%
BITSFR               0      0       0     200        0.0%
SFR                  0      0       0     200        0.0%
STACK                0      0       0       2        0.0%
NULL                 0      0       0       0        0.0%
ABS                  0      0     21A      32        0.0%
DATA                 0      0     40E       3        0.0%
CODE                 0      0       0       0        0.0%


Microchip Technology PIC18 Macro Assembler V2.31 build 20201012212115 
Symbol Table                                                                                   Thu Jan 14 21:13:52 2021

                 ??_uart_char_write 0003                  __size_of_I2C_Start 0008  
                                _OK BEED                                 l200 0DC2  
                               l203 0E10                                 l212 14E6  
                               l204 0E12                                 l302 0E98  
                               l207 14A8                                 l215 1174  
                               l313 140A                                 l233 1520  
                               l218 145C                                 l243 0952  
                               l307 0F10                                 l236 139E  
                               l252 0FF6                                 l405 0620  
                               l430 14D4                                 l422 0196  
                               l239 1426                                 l423 017E  
                               l336 0868                                 l433 13A0  
                               l193 1432                                 l281 1304  
                               l409 00A6                                 l513 0362  
                               l442 1544                                 l266 0A22  
                               l418 0154                                 l451 152A  
                               l195 1440                                 l427 01FE  
                               l419 013C                                 l507 02C8  
                               l436 13C4                                 l460 1490  
                               l196 1442                                 l454 14F6  
                               l390 13E8                                 l439 153C  
                               l463 1460                                 l287 133C  
                               l448 1534                                 l472 0AF2  
                               l457 147A                                 l465 146E  
                               l377 14BE                                 l466 1476  
                               l459 1488                                 l299 12CC  
                               l387 076A                                 l469 0D8A  
                               l995 0F7C                                 _GIE 007F97  
                               _RC1 007C11                                 _RE0 007C20  
                               _RE5 007C25                                 _RH0 007C38  
                               _RE7 007C27                                 _RF6 007C2E  
                               _RH5 007C3D                                 _RH7 007C3F  
                               u180 13AE                                 u181 13AA  
                               u190 13C4                                 u191 13C0  
                               _PEN 007E2A                                 u540 1488  
                               _ISR 0008                                 u541 1484  
                               u550 146E                                 u551 146A  
                               u900 1374                                 _SEN 007E28  
                               u901 1370                                 u910 11A6  
                               u920 11B6                                 u921 11B2  
                               u930 08C0                                 u931 08BC  
                               u940 090A                                 u917 119C  
                               u941 0906                                 u950 0926  
                               u951 0922                                 u960 094E  
                               u961 094A                                 u970 1440  
                               u971 143C                                 u980 0DC0  
                               u990 0DD0                                 u991 0DCC  
                               u987 0DB6                     __end_of_I2C_ACK 1536  
                   ??_uart_read_int 0003                                 _tmp 0039  
                               wreg 000FE8                                ?_ISR 0001  
          __size_of_uart_text_write 0088                                l1002 0F84  
                              l1012 10CA                                l1005 10C2  
                              l2000 0D80                                l2002 0D86  
                              l1202 11C2                                l1212 0E96  
                              l1230 11C4                                l1232 120E  
                              l1224 0C5E                                l1241 0CF4  
                              l2300 14D8                                l3020 0374  
                              l1181 1374                                l2310 14E4  
                              l2302 14DC                                l1190 1066  
                              l3030 03B0                                l3022 0378  
                              l2304 14DE                                l2320 149C  
                              l2312 1492                                l2400 09EC  
                              l3040 03DC                                l3032 03C8  
                              l3024 0390                                l2306 14E0  
                              l2330 14A6                                l2322 149E  
                              l2314 1494                                l2402 0A10  
                              l3050 041C                                l3042 03E8  
                              l3034 03CA                                l3026 0394  
                              l3018 0364                                l1460 13A0  
                              l2308 14E2                                l2340 0882  
                              l2332 1376                                l2324 14A0  
                              l2316 1498                                l2404 0A18  
                              l3108 01D0                                l2500 0C3E  
                              l2420 0F3C                                l2412 0F12  
                              l1196 1294                                l3060 042C  
                              l3052 041E                                l3044 03F4  
                              l3036 03CC                                l3028 03AC  
                              l1462 13AE                                l2350 08C6  
                              l2342 0896                                l2334 1392  
                              l2326 14A2                                l2318 149A  
                              l2406 0A1C                                l2510 0E26  
                              l2502 0C56                                l2430 0F70  
                              l2422 0F4A                                l2414 0F1A  
                              l3070 047C                                l3054 0420  
                              l3062 0434                                l3046 0410  
                              l3038 03D0                                l2352 08D2  
                              l2344 08AA                                l2280 133E  
                              l2336 1396                                l2328 14A4  
                              l2408 0A20                                l2520 0E7C  
                              l2600 0FE6                                l2432 0F76  
                              l2424 0F50                                l2416 0F2C  
                              l2440 108A                                l3080 048E  
                              l3072 0480                                l3064 0450  
                              l3056 0428                                l3048 0418  
                              l1642 152C                                l1650 1526  
                              l2290 1182                                l2354 090A  
                              l2362 092C                                l2346 08C0  
                              l2338 086A                                l2282 134A  
                              l2610 1312                                l2602 12CE  
                              l2514 0E56                                l2506 0E14  
                              l2450 0C60                                l2426 0F66  
                              l2418 0F34                                l2442 1098  
                              l2434 1068                                l2530 0232  
                              l2522 0200                                l3082 0490  
                              l3074 0482                                l3058 042A  
                              l3066 0458                                l1644 1530  
                              l1652 1528                                l2372 142A  
                              l2380 0DD0                                l2292 1186  
                              l2364 0934                                l2356 090E  
                              l2284 1356                                l2612 1326  
                              l2620 0E98                                l2604 12DA  
                              l2516 0E6C                                l2508 0E20  
                              l2460 0CCA                                l2452 0C64  
                              l2428 0F6E                                l2444 10AE  
                              l2436 107A                                l2540 027A  
                              l2532 023A                                l2524 020C  
                              l3076 0484                                l3084 0498  
                              l3068 0474                                l1750 14C0  
                              l1646 1532                                l2374 142E  
                              l2382 0DD4                                l2294 11B6  
                              l2358 0926                                l2366 0938  
                              l2286 135A                                l2390 098C  
                              l2630 0EDA                                l2622 0EA4  
                              l2606 12EE                                l2614 1296  
                              l1654 140C                                l2710 0794  
                              l2518 0E78                                l2470 11DE  
                              l2454 0C7C                                l2462 0CD2  
                              l2446 10B6                                l2438 1082  
                              l2542 0282                                l2526 021E  
                              l3086 04B4                                l3078 048C  
                              l1752 14D0                                l1760 153E  
                              l1648 1522                                l2376 0D8C  
                              l2480 1444                                l2288 1176  
                              l2392 0994                                l2384 0954  
                              l2608 1306                                l2640 13EA  
                              l2632 0EDE                                l2624 0EAA  
                              l2616 12A2                                l1656 140E  
                              l2720 07E2                                l2712 0798  
                              l2800 00EE                                l2464 0CEC  
                              l2456 0CA4                                l2448 10BC  
                              l2560 031E                                l2552 02B4  
                              l2536 0242                                l2528 022A  
                              l1754 14D2                                l1762 1542  
                              l1770 148A                                l2298 14D6  
                              l2378 0D94                                l2482 1450  
                              l2394 09B8                                l2386 0958  
                              l2642 13F6                                l2626 0EC8  
                              l2618 12B6                                l1658 1424  
                              l2730 0834                                l2722 07E6  
                              l2714 07AC                                l2706 076C  
                              l2810 00FE                                l2802 00F0  
                              l2474 11EA                                l2490 0BBE  
                              l2562 0322                                l2554 02B6  
                              l2538 026A                                l2570 125A  
                              l2650 0656                                l1764 14EA  
                              l1756 1536                                l1772 148E  
                              l1780 1474                                l2484 1456  
                              l2396 09C0                                l2388 0968  
                              l2628 0ED4                                l2732 084A  
                              l2724 07FC                                l2716 07C2  
                              l2708 0778                                l2820 012E  
                              l2812 0106                                l2804 00F6  
                              l2476 1206                                l2468 11C4  
                              l2492 0BF8                                l2556 02D0  
                              l2548 0286                                l2564 0334  
                              l2580 1008                                l2572 1266  
                              l2660 06B6                                l2652 0668  
                              l2644 0622                                l1766 14EE  
                              l1758 153A                                l2398 09E4  
                              l2486 1514                                l2638 0EF6  
                              l2734 0864                                l2726 0816  
                              l2718 07CE                                l2742 13C6  
                              l2830 0170                                l2822 0136  
                              l2814 0108                                l2806 00FA  
                              l2590 0F86                                l2558 0312  
                              l2566 0356                                l2582 1024  
                              l2574 126E                                l2662 06CA  
                              l2670 071A                                l2654 067C  
                              l2646 0626                                l2750 04EC  
                              l1960 0D1C                                l1952 0CF6  
                              l1768 1478                                l1776 145E  
                              l2728 081A                                l2744 13D2  
                              l2840 01B2                                l2832 0178  
                              l2824 013E                                l2816 010A  
                              l2808 00FC                                l2496 0C04  
                              l2488 0BBA                                l2592 0F86  
                              l2584 102C                                l2576 0FF8  
                              l2680 0750                                l2672 0726  
                              l2664 06DE                                l2656 0690  
                              l2648 063A                                l2760 0574  
                              l2752 0508                                l1970 0D36  
                              l1962 0D22                                l1954 0D0E  
                              l1778 1470                                l2690 1154  
                              l2842 01B2                                l2834 0180  
                              l2826 0146                                l2818 0112  
                              l2498 0C2C                                l2594 0FA6  
                              l2586 14AA                                l2578 1004  
                              l2682 0754                                l2674 072A  
                              l2666 06F2                                l2658 06A4  
                              l2770 05FC                                l2762 0598  
                              l2754 0516                                l2746 04C4  
                              l1980 0D4E                                l1972 0D3A  
                              l1964 0D26                                l1956 0D12  
                              l2852 0A24                                l2692 1156  
                              l2684 1126                                l2844 01B4  
                              l2836 0188                                l2828 0150  
                              l2780 009A                                l2596 0FC6  
                              l2588 14AA                                l2676 072E  
                              l2668 0706                                l2772 060A  
                              l2764 05A6                                l2756 0542  
                              l2748 04E8                                l1990 0D66  
                              l1982 0D52                                l1974 0D3E  
                              l1966 0D2A                                l1958 0D16  
                              l2854 0AEA                                l2694 1158  
                              l2686 113C                                l2838 0192  
                              l2790 00BE                                l2782 00AE  
                              l2846 01BA                                l2598 0FCC  
                              l2678 0744                                l2766 05CA  
                              l2774 0614                                l2758 0566  
                              l1992 0D6C                                l1984 0D58  
                              l1976 0D44                                l1968 0D30  
                              l2696 1170                                l2688 1152  
                              l2792 00C0                                l2784 00B2  
                              l2776 0618                                l2768 05D8  
                              l1994 0D72                                l1986 0D5E  
                              l1978 0D4A                                l2794 00C2  
                              l2786 00B4                                l1996 0D76  
                              l1988 0D62                                l2788 00B6  
                              l2796 00CA                                l1998 0D7A  
                              l2798 00E6                                STR_1 BFEC  
                              STR_2 BF69                                STR_3 BFF3  
                              STR_4 BF89                                STR_5 BFD7  
                              STR_6 BFFC                                STR_7 BFA5  
                              STR_8 BFBE                                _APIP 015A  
                              _BRGH 007D62                                u1000 0E00  
                              _CREN 007D5C                                u1010 0E10  
                              u1011 0E0C                                u1020 0968  
                              u1100 107A                                u1021 0964  
                              u1101 1076                                u1030 098C  
                              u1110 1098                                u1007 0DF6  
                              u1031 0988                                u1111 1094  
                              u1040 09B8                                u1200 0C56  
                              u1120 10AE                                u1041 09B4  
                              u1201 0C52                                u1121 10AA  
                              u1050 09E4                                u1210 0E52  
                              u1130 0C7C                                u1051 09E0  
                              u1211 0E4E                                u1131 0C78  
                              u1060 0A10                                u1220 0E68  
                              u1140 0CA4                                u1300 1020  
                              u1061 0A0C            __size_of_mult_connection 0038  
                              u1221 0E64                                u1141 0CA0  
                              u1301 101C                                u1230 0E96  
                              u1150 0CEC                                u1070 0F2C  
                              u1310 1054                                u2007 1418  
                              u1231 0E92                                u1151 0CE8  
                              u1071 0F28                                u1160 11DE  
                              u1080 0F4A                                u1240 021E  
                              u1320 1066                                u1400 06B6  
                              u2017 12C0                                u1161 11DA  
                              u1081 0F46                                u1241 021A  
                              u1321 1062                                u1401 06B2  
                              u1170 1206                                u1330 14BE  
                              u1090 0F66                                u1250 02B0  
                              u2027 12F8                                u1171 1202  
                              u1331 14BA                                u1091 0F62  
                              u1251 02AC                                u1340 12EE  
                              u1420 07AC                                u1500 00E6  
                              u1180 0BF8                                u1260 02C8  
                              u2037 0F00                                u1341 12EA  
                              u1421 07A8                                u1501 00E2  
                              u1181 0BF4                                u1261 02C4  
                              u1317 104A                                u1350 1326  
                              u1430 07E2                                u1510 012E  
                              u1190 0C3E                                u1270 0334  
                              u2047 1330                                u1351 1322  
                              u1431 07DE                                u1511 012A  
                              u1191 0C3A                                u1271 0330  
                              u1360 12B6                                u1520 0170  
                              u1280 0356                                u2057 0D00  
                              u1361 12B2                                u1521 016C  
                              u1281 0352                                u1441 04CE  
                              u1370 0EF2                                u1530 01B2  
                              u1290 1294                                u1371 0EEE  
                              u1531 01AE                                u1291 1290  
                              u1451 04E0                                u1380 140A  
                              u1460 0566                                u1700 0450  
                              u1381 1406                                u1461 0562  
                              u1701 044C                                u1390 0668  
                              u1470 0598                                u1710 0474  
                              u1391 0664                                u1471 0594  
                              u1711 0470                                u1480 05CA  
                              u1720 04B4                                u1481 05C6  
                              u1721 04B0                                u1490 05FC  
                              u1491 05F8                                u1807 050E  
                              u1817 0738                                u1737 0382  
                              u1690 0410                                u1907 018C  
                              u1827 075E                                u1691 040C  
                              u1747 039E                                u1917 13DC  
                              u1837 00B8                                u1757 03BA  
                              u1927 1146                                u1847 00C4  
                              u1767 0422                                u1937 1164  
                              u1857 0100                                u1777 042E  
                              u1947 07B6                                u1867 010C  
                              u1787 0486                                _PEIE 007F96  
                              u1957 07F0                                u1877 0140  
                              u1797 0492                                u1967 080A  
                              u1887 014A                                u1977 0824  
                              u1897 0182                                u1987 083E  
                              _RCIE 007CED                                _RCIF 007CF5  
                              _RCEN 007E2B                                u1997 0858  
                              _SPEN 007D5F                                _RSEN 007E29  
                              _SSID 004F                                _TRMT 007D61  
                              _TXEN 007D65                                _SYNC 007D64  
                  __end_of_I2C_NACK 152C                                _code 01B8  
                              _main 0364                    __end_of_I2C_Read 1492  
                              _port BEEE                                fsr0h 000FEA  
                              fsr1h 000FE2                                indf0 000FEF  
                              fsr2h 000FDA                                fsr0l 000FE9  
                              indf1 000FE7                                indf2 000FDF  
                              fsr1l 000FE1                                fsr2l 000FD9  
                              btemp 005B                    __end_of_I2C_Wait 13C6  
                              prodh 000FF4                                prodl 000FF3  
                              start 0096             __end_of_connected_to_ap 0F12  
        __end_of_check_connected_ap 140C                        ___param_bank 000000  
                      main@data_acc 002F                               ??_ISR 0001  
                  __end_of_AT_CIFSR BED1                    __end_of_AT_CWJAP BEC8  
                  __end_of_AT_CWLAP BEE3                    __end_of_AT_CWQAP BEDA  
                  __end_of_AT_CWSAP BEBE                    ?_I2C_Master_Init 0001  
                  ?_I2C_Master_Stop 0001                               ?_main 0001  
                             _ACKEN 007E2C                               _ACKDT 007E2D  
                     ??_WiFi_Config 0019                               STR_10 BFAE  
                             STR_12 BFB6                               STR_20 BF7F  
                             STR_21 BF74                               STR_14 BF93  
                             STR_30 BF10                               STR_22 BF01  
                             STR_31 BFDD                               STR_32 BFC5  
                             STR_16 BF9C                               STR_24 BEF1  
                             STR_41 BFF9                               STR_17 BF51  
                             STR_25 BF1E                               STR_42 BF5D  
                             STR_26 BFF0                               STR_50 BFE2  
                             STR_18 BF39                               STR_34 BF2C  
                             STR_43 BF1B                               STR_27 BFF9  
                             STR_51 BFD1                               STR_19 BF45  
                             STR_44 BF5D                               STR_52 BFE7  
                             STR_28 BF5D                               STR_45 BFC9  
                             STR_46 BF1B                               STR_47 BFCB  
                             STR_48 BFCF                               STR_49 BFF6  
                             _APMAC 013C                               _PCFG0 007E08  
                             _PCFG1 007E09                               _PCFG2 007E0A  
                             _PCFG3 007E0B                     __end_of___lwdiv 0F86  
                   __end_of___lwmod 10CC                               i2l345 0088  
                             i2l348 008A                     ??_disconnect_ap 0017  
                             _RCREG 000FAE                               _SPBRG 000FAF  
                             _STAIP 011E                               _TRISE 000F96  
                             _SSPIF 007CF3                               _TRISH 000F99  
                             _TXREG 000FAD                     __end_of_do_move 0200  
            __size_of_I2C_Read_NACK 001A                       ?_MPU6050_Init 0001  
                     ?_MPU6050_Read 0005                     __end_of_dpowers BEB4  
          __end_of_send_data_direct 076C                               _ready BEEC  
                             main@i 0031                   __end_of_I2C_Start 153E  
                             tablat 000FF5             send_req_data@direction_ 00CC  
                             plusw1 000FE3                               plusw2 000FDB  
          __size_of_find_get_string 0072                               ttemp5 005C  
                             ttemp6 005F                               ttemp7 0063  
                             status 000FD8                               wtemp8 005C  
                   __end_of_sprintf 0364             find_string@index_string 0014  
                   __end_of_strncmp 0CF6                     __end_of_strncpy 0E98  
                    MPU6050_Read@Ax 0017                      MPU6050_Read@Az 000D  
                    MPU6050_Read@Gx 000F                      MPU6050_Read@Gy 0011  
                    MPU6050_Read@Gz 0013                     __initialization 0AF4  
                      __end_of_main 04C4                        __end_of_port BEF1  
                         ??_I2C_ACK 0004                   ?_response_success 0001  
                            ??_main 002B                  ??_response_success 0016  
                 __end_of_AT_CIPMUX BE9F                       __activetblptr 000002  
                 __end_of_AT_CWMODE BEAA                   ?_I2C_Master_Write 0001  
                    ??_MPU6050_Init 0005                      ??_MPU6050_Read 0007  
             __end_of_send_req_data 0622                 __end_of_WiFi_Config 086A  
                ??_I2C_Master_Write 0004                              i2l2080 0028  
                            i2l2082 003E                              i2l2090 0072  
                            i2l2084 0046                              i2l2076 0012  
                            i2l2086 005A                              i2l2078 0020  
                            i2l2088 006A                              _AT_RST BEE3  
                            _STAMAC 0100                              _SSPADD 000FC8  
                            _TRISB0 007C98                              _TRISC1 007CA1  
                            _TRISC3 007CA3                              _TRISC4 007CA4  
                            _TRISC6 007CA6                              _TRISC7 007CA7  
                            _TRISF6 007CBE                              _SSPBUF 000FC9  
                  __end_of_check_ok 14C0                   ??_uart_text_write 0005  
                main@direction_data 002D                   ??_mult_connection 0017  
                  ?_connected_to_ap 0001                       _I2C_Read_NACK 145E  
              __size_of_find_string 00EA                           ??___lwdiv 0007  
                         ??___lwmod 000E                              _config 1126  
                            _memset 133E                              clear_0 0B7C  
                            clear_1 0B8E                              clear_2 0B9A  
                            clear_3 0BA6                    __end_of_new_line 1522  
               send_data_direct@RF6 001E                           ??_do_move 0005  
                            _strcat 0FF8                              _strchr 11C4  
                            _strcpy 125A                              _strlen 1176  
                            _strstr 0BBA                           ?_I2C_NACK 0001  
                      __pdataCOMRAM 004D                 _ap_and_station_mode 1306  
                         ?_I2C_Read 0001                           ?_I2C_Wait 0001  
              __end_of_AT_CIPSERVER BE6D                        __mediumconst BE5E  
              __end_of_AT_CIPSTATUS BE94                              tblptrh 000FF7  
                            tblptrl 000FF6                              tblptru 000FF8  
          ?_connected_to_thingspeak 0001                           ??_sprintf 0015  
                         ??_strncmp 000D                           ??_strncpy 0009  
                        __accesstop 0060             __end_of__initialization 0BAC  
                   _uart_char_write 1428                       ___rparam_used 000001  
              ?_ap_and_station_mode 0001                      ?_I2C_Read_NACK 0001  
             __end_of_UART_Write_AT 145E                   ??_find_get_string 001C  
                    __pcstackCOMRAM 0001                        __pidataBANK0 1506  
                      __pidataBANK1 1210                        __pidataBANK2 10CC  
                     __end_of_ready BEED                          __end_of_OK BEEE  
                        ??_I2C_NACK 0004                         _WiFi_Config 076C  
                        ??_I2C_Read 0004                          ??_I2C_Wait 0003  
             send_req_data@link_req 0060                          __pbssBANK0 00CE  
                        __pbssBANK1 0100                          _data_ready 003A  
             ??_ap_and_station_mode 0017              find_string@string_find 0009  
              find_get_string@_from 0016                __end_of_MPU6050_Init 0D8C  
              __end_of_MPU6050_Read 0AF4                             ?_config 0001  
                           _I2C_ACK 152C                             ?_memset 0003  
                           ?_strcat 0003                             ?_strchr 0003  
                           ?_strcpy 0003                             ?_strlen 0003  
                           ?_strstr 000E                  __size_of_uart_init 0012  
                _check_connected_ap 13EA                           ?_check_ok 0001  
             __end_of_uart_read_int 14AA                             i2u77_40 0020  
                           i2u77_41 001C                             i2u78_40 003E  
                           i2u78_41 003A             __end_of_uart_char_write 1444  
                           _SSPCON1 000FC6                             _SSPCON2 000FC5  
                 ?_send_data_direct 001C                             _SSPSTAT 000FC7  
               ?_check_connected_ap 0001                  find_string@mathced 0012  
                ??_send_data_direct 0022                     ??_I2C_Read_NACK 0004  
                         _I2C_Start 1536                           ?_new_line 0001  
                           __Hparam 0000                             __Lparam 0000  
              ??_check_connected_ap 0017                             ___lwdiv 0F12  
                           ___lwmod 1068                     __size_of_config 0050  
                  send_req_data@id_ 00BA                             __pcinit 0AF4  
                   __size_of_memset 0038                   find_get_string@p1 001F  
                 find_get_string@p2 001C                             __ramtop 1000  
                 find_get_string@to 0017                             __ptext0 0364  
                           __ptext1 04C4                             __ptext2 0622  
                           __ptext3 125A                             __ptext4 0FF8  
                           __ptext5 0200                             __ptext6 1068  
                           __ptext7 0F12                             __ptext8 14AA  
                           __ptext9 0F86                             _do_move 009A  
                   __size_of_strcat 0070                     __size_of_strchr 004C  
                   __size_of_strcpy 003C                     __size_of_strlen 004E  
                      __size_of_ISR 008E                     __size_of_strstr 00A6  
                           _dpowers BEAA              response_success@result 0016  
                        ??_check_ok 0017               __end_of_disconnect_ap 1306  
                 __end_of_no_change BEEC                             _tcp_web 018C  
          __size_of_I2C_Master_Init 0016                           _AT_CIPMUX BE94  
          __size_of_I2C_Master_Stop 0008                     _uart_text_write 0D8C  
                         _AT_CWMODE BE9F                             _rx_buff 025A  
                   _mult_connection 1296                             _sprintf 0200  
                           _strncmp 0C60                             _strncpy 0E14  
         __size_of_response_success 00D0                end_of_initialization 0BAC  
                           memset@c 0005                             memset@n 0007  
                           memset@p 0009                       __Lmediumconst BE5E  
                        _send_ready BEEA                          ?_I2C_Start 0001  
                        ??_new_line 0004                   __end_of_uart_init 14E8  
         __size_of_I2C_Master_Write 0010                          _reset_buff 1376  
                      _AT_CIPSERVER BE5F                      _adc_value_text 0041  
                        _reset_wifi 140C                        _AT_CIPSTATUS BE87  
                           postdec1 000FE5                             postdec2 000FDD  
                           postinc0 000FEE                             postinc2 000FDE  
                           strlen@s 0003                          do_move@dir 0003  
                 __size_of_I2C_NACK 000A                   __size_of_I2C_Read 001A  
                 __size_of_I2C_Wait 0026                    ?_uart_char_write 0001  
                   _find_get_string 0F86                      __end_of_AT_RST BEEA  
             __size_of_MPU6050_Init 0096               __size_of_MPU6050_Read 00D0  
                     ??_find_string 000B    __size_of_connected_to_thingspeak 0024  
            __size_of_send_req_data 015E                       __pidataCOMRAM 14F8  
          __size_of_connected_to_ap 007A                      __end_of_config 1176  
           __end_of_uart_text_write 0E14                      __end_of_memset 1376  
                      ?_WiFi_Config 0001             __end_of_mult_connection 12CE  
                    __end_of_strcat 1068                      __end_of_strchr 1210  
                    __end_of_strcpy 1296                      __end_of_strlen 11C4  
                    __end_of_strstr 0C60                 start_initialization 0AF4  
                     MPU6050_Read@T 0015                         __end_of_ISR 0096  
                      _MPU6050_Init 0CF6                        _MPU6050_Read 0A24  
                 ??_I2C_Master_Init 0003                   ??_I2C_Master_Stop 0004  
                      _counter_text 0051                         ??_I2C_Start 0004  
                uart_text_write@RF6 0003                         ?_reset_buff 0001  
                       ?_reset_wifi 0001  send_data_direct@size_data_text_num 0026  
                          ??_config 0003                         __pdataBANK0 00E2  
                       __pdataBANK1 018C                         __pdataBANK2 0200  
                          ?_I2C_ACK 0001                 __end_of_AT_CIPCLOSE BE7A  
               __end_of_find_string 0954                            ??_memset 0009  
               __end_of_AT_CIPSTART BE87                            ??_strcat 0007  
                          ??_strchr 0007                            ??_strcpy 0007  
                          ??_strlen 0005                            ??_strstr 0012  
                       __pbssBIGRAM 025A                         __pbssCOMRAM 0033  
           __end_of_find_get_string 0FF8                       __pcstackBANK0 0060  
                 __size_of_check_ok 0016                  send_req_data@F4865 00E2  
                send_req_data@F4868 0200              __size_of_UART_Write_AT 001A  
                         _adc_value 0035                       _send_req_data 04C4  
       __end_of_ap_and_station_mode 133E                    _response_success 0954  
                       sprintf@flag 0015                         sprintf@prec 001A  
                  _I2C_Master_Write 14E8                    ___lwdiv@dividend 0003  
                 __size_of_new_line 000E                 find_get_string@from 0014  
    send_data_direct@send_command_1 0024                           __pintcode 0008  
     send_data_direct@size_data_num 0024                       __pmediumconst BE5E  
         __size_of_send_data_direct 014A                            ?___lwdiv 0003  
                          ?___lwmod 000A               find_get_string@length 001E  
              I2C_Master_Write@Data 0004                  uart_char_write@RF6 0003  
                          ?_do_move 0003               find_get_string@string 0012  
                  ?_uart_text_write 0003                            _I2C_NACK 1522  
                  ?_mult_connection 0001                            _I2C_Read 1478  
                          _I2C_Wait 13A0                   find_string@string 0007  
                 ??_connected_to_ap 0017    find_string@length_of_string_find 0010  
               __size_of_reset_buff 002A             find_get_string@get_text 001A  
                    ?_send_req_data 0028                 __size_of_reset_wifi 001C  
                  ___lwdiv@quotient 0007                            ?_sprintf 000F  
                          ?_strncmp 0007                            ?_strncpy 0003  
                         _no_change BEEB                            _AT_CIFSR BEC8  
                          _AT_CWJAP BEBE                            _AT_CWLAP BEDA  
                          _AT_CWQAP BED1                            _AT_CWSAP BEB4  
                       strncpy@from 0005             _connected_to_thingspeak 13C6  
                       strncpy@size 0007               __end_of_I2C_Read_NACK 1478  
                       _AT_CIPCLOSE BE6D                         _find_string 086A  
                       _AT_CIPSTART BE7A                       _UART_Write_AT 1444  
            __size_of_uart_read_int 0018                           _uart_init 14D6  
       __size_of_check_connected_ap 0022                           _size_data 0033  
                  __size_of_I2C_ACK 000A                    ?_find_get_string 0012  
              __size_of_WiFi_Config 00FE              send_data_direct@data_1 001C  
                         copy_data0 0B08                           copy_data1 0B28  
                         copy_data2 0B48                           copy_data3 0B68  
            send_data_direct@id_str 0020                       _webpage_text1 0056  
                     _webpage_text2 00EA                            __Hrparam 0000  
                          __Lrparam 0000                      ?_UART_Write_AT 0009  
            __size_of_disconnect_ap 0038                          ?_uart_init 0001  
                      _send_command 00CE                    __size_of___lwdiv 0074  
                  __size_of___lwmod 0064                    __size_of_do_move 0166  
                        sprintf@val 0018                     _I2C_Master_Init 14C0  
                          _check_ok 14AA                          strcat@from 0005  
                   _I2C_Master_Stop 153E                            _data_len 0037  
                   ??_send_req_data 002A                     ___lwdiv@divisor 0005  
                find_get_string@_to 0019                     ___lwdiv@counter 0009  
                UART_Write_AT@_data 0009                       _uart_read_int 1492  
                          __ptext10 0BBA                            __ptext11 0C60  
                          __ptext20 12CE                            __ptext12 11C4  
                          __ptext21 0E98                            __ptext13 0E14  
                          __ptext30 1176                            __ptext22 1514  
                          __ptext14 009A                            __ptext31 1444  
                          __ptext23 13EA                            __ptext15 13C6  
                          __ptext40 0CF6                            __ptext32 0D8C  
                          __ptext24 1306                            __ptext16 1126  
                          __ptext41 1536                            __ptext33 1428  
                          __ptext25 0954                            __ptext17 076C  
                          __ptext42 14E8                            __ptext34 14D6  
                          __ptext26 1492                            __ptext18 140C  
                          __ptext43 153E                            __ptext35 0A24  
                          __ptext27 1376                            __ptext19 1296  
                          __ptext44 13A0                            __ptext36 145E  
                          __ptext28 133E                            __ptext45 14C0  
                          __ptext37 1522                            __ptext29 086A  
                          __ptext38 1478                            __ptext39 152C  
    send_req_data@data_of_direction 00C2                    __size_of_sprintf 0164  
                  __size_of_strncmp 0096                    __size_of_strncpy 0084  
         ??_connected_to_thingspeak 0009                          strcpy@from 0005  
                     __size_of_main 0160                            _new_line 1514  
                        strncmp@len 000B            __size_of_uart_char_write 001C  
                          _password 004D                        ??_reset_buff 000B  
                      ??_reset_wifi 0003                    _send_data_direct 0622  
                          do_move@i 0007                            int$flags 005B  
          __end_of_response_success 0A24            __end_of_I2C_Master_Write 14F8  
                __end_of_send_ready BEEB                    uart_text_write@i 0007  
                    ?_uart_read_int 0001                       _disconnect_ap 12CE  
                          memset@p1 0003                  __end_of_reset_buff 13A0  
                __end_of_reset_wifi 1428                            intlevel2 0000  
                         sprintf@ap 0016                           sprintf@sp 000F  
                    _size_data_text 003B                           strchr@chr 0005  
                  ___lwmod@dividend 000A                           strchr@ptr 0003  
                     _close_command 0178                     ??_UART_Write_AT 000B  
                         strncmp@s1 0007                           strncmp@s2 0009  
                         strncpy@cp 0009                           strncpy@to 0003  
                       ??_uart_init 0003                     _connected_to_ap 0E98  
           __end_of_I2C_Master_Init 14D6     __end_of_connected_to_thingspeak 13EA  
           __end_of_I2C_Master_Stop 1546                            sprintf@c 001B  
                          sprintf@f 0011                            strcat@cp 0007  
                          strcat@to 0003                     ___lwmod@divisor 000C  
                          strcpy@cp 0007                            strlen@cp 0005  
                          strcpy@to 0003                     ___lwmod@counter 000E  
       find_string@length_of_string 000E                      ?_disconnect_ap 0001  
                          strstr@s1 000E                            strstr@s2 0010  
                     _connection_id 0047        __size_of_ap_and_station_mode 0038  
                      ?_find_string 0007  
